(dp0
(I2
I124
I82
I1
I0
I104
I75
I0
I0
I244
I230
I0
I0
I22
I12
I0
I0
I114
I72
I0
I0
I131
I102
I0
I0
I25
I14
I0
I0
I34
I20
I0
I0
I15
I6
I0
I0
I24
I11
I0
I2
I157
I116
I1
I0
I18
I6
I0
I0
I56
I31
I1
I0
I51
I29
I0
I2
I86
I57
I1
I0
I60
I41
I0
I0
I41
I19
I0
I0
I93
I53
I0
tp1
S'3'
p2
s(I2
I128
I88
I1
I0
I118
I82
I0
I0
I244
I230
I0
I0
I22
I12
I0
I0
I133
I122
I0
I0
I131
I102
I0
I0
I29
I18
I0
I0
I31
I19
I0
I0
I15
I6
I0
I0
I24
I11
I0
I2
I256
I218
I1
I0
I18
I6
I0
I0
I65
I42
I1
I0
I51
I29
I0
I2
I86
I57
I1
I0
I60
I41
I0
I0
I76
I54
I0
I0
I104
I69
I0
tp3
S'2'
p4
s(I2
I88
I55
I1
I0
I108
I72
I0
I0
I244
I230
I0
I0
I22
I12
I0
I0
I139
I126
I0
I0
I131
I102
I0
I0
I35
I21
I0
I0
I32
I15
I0
I0
I15
I6
I0
I0
I24
I11
I0
I2
I151
I113
I1
I0
I18
I6
I0
I0
I50
I30
I1
I0
I51
I29
I0
I2
I86
I57
I1
I0
I60
I41
I0
I0
I38
I18
I0
I0
I90
I55
I0
tp5
g4
s(I2
I116
I78
I1
I0
I110
I79
I0
I0
I244
I230
I0
I0
I22
I12
I0
I0
I173
I140
I0
I0
I131
I102
I0
I0
I37
I24
I0
I0
I29
I15
I0
I0
I15
I6
I0
I0
I24
I11
I0
I2
I295
I242
I1
I0
I18
I6
I0
I0
I50
I26
I1
I0
I51
I29
I0
I2
I86
I57
I1
I0
I60
I41
I0
I0
I38
I19
I0
I0
I107
I67
I0
tp6
S'1'
p7
s(I2
I116
I77
I1
I0
I101
I69
I0
I0
I244
I230
I0
I0
I22
I12
I0
I0
I185
I171
I0
I0
I131
I102
I0
I0
I25
I13
I0
I0
I27
I13
I0
I0
I15
I6
I0
I0
I24
I11
I0
I2
I211
I177
I1
I0
I18
I6
I0
I0
I50
I30
I1
I0
I51
I29
I0
I2
I86
I57
I1
I0
I60
I41
I0
I0
I42
I21
I0
I0
I120
I88
I0
tp8
g4
s(I2
I122
I84
I1
I0
I136
I103
I0
I0
I244
I230
I0
I0
I22
I12
I0
I0
I179
I141
I0
I0
I131
I102
I0
I0
I30
I16
I0
I0
I32
I17
I0
I0
I15
I6
I0
I0
I24
I11
I0
I2
I238
I191
I1
I0
I18
I6
I0
I0
I64
I41
I1
I0
I51
I29
I0
I2
I86
I57
I1
I0
I60
I41
I0
I0
I43
I21
I0
I0
I99
I66
I0
tp9
g4
s(I2
I96
I61
I1
I0
I97
I68
I0
I0
I244
I230
I0
I0
I22
I12
I0
I0
I150
I105
I0
I0
I131
I102
I0
I0
I25
I14
I0
I0
I32
I17
I0
I0
I15
I6
I0
I0
I24
I11
I0
I2
I219
I182
I1
I0
I18
I6
I0
I0
I61
I38
I1
I0
I51
I29
I0
I2
I86
I57
I1
I0
I63
I51
I0
I0
I43
I22
I0
I0
I117
I72
I0
tp10
g7
s(I2
I127
I81
I1
I0
I132
I92
I0
I0
I244
I230
I0
I0
I22
I12
I0
I0
I106
I71
I0
I0
I131
I102
I0
I0
I25
I13
I0
I0
I27
I15
I0
I0
I15
I6
I0
I0
I24
I11
I0
I2
I239
I197
I1
I0
I18
I6
I0
I0
I63
I40
I1
I0
I51
I29
I0
I2
I86
I57
I1
I0
I63
I51
I0
I0
I40
I21
I0
I0
I89
I55
I0
tp11
g4
s(I2
I114
I71
I1
I0
I102
I69
I0
I0
I244
I230
I0
I0
I22
I12
I0
I0
I105
I64
I0
I0
I131
I102
I0
I0
I25
I13
I0
I0
I27
I13
I0
I0
I15
I6
I0
I0
I24
I11
I0
I2
I233
I177
I1
I0
I18
I6
I0
I0
I58
I33
I1
I0
I51
I29
I0
I2
I86
I57
I1
I0
I60
I41
I0
I0
I43
I22
I0
I0
I157
I123
I0
tp12
g2
s(I2
I116
I83
I1
I0
I146
I106
I0
I0
I244
I230
I0
I0
I22
I12
I0
I0
I107
I66
I0
I0
I131
I102
I0
I0
I32
I18
I0
I0
I34
I19
I0
I0
I15
I6
I0
I0
I24
I11
I0
I2
I199
I165
I1
I0
I18
I6
I0
I0
I58
I36
I1
I0
I51
I29
I0
I2
I86
I57
I1
I0
I60
I41
I0
I0
I38
I19
I0
I0
I101
I57
I0
tp13
g4
s(I2
I112
I77
I1
I0
I104
I75
I0
I0
I244
I230
I0
I0
I22
I12
I0
I0
I150
I132
I0
I0
I131
I102
I0
I0
I35
I19
I0
I0
I36
I20
I0
I0
I15
I6
I0
I0
I24
I11
I0
I2
I189
I153
I1
I0
I18
I6
I0
I0
I66
I43
I1
I0
I51
I29
I0
I2
I86
I57
I1
I0
I60
I41
I0
I0
I48
I23
I0
I0
I110
I72
I0
tp14
g4
s(I2
I121
I79
I1
I0
I110
I70
I0
I0
I244
I230
I0
I0
I22
I12
I0
I0
I131
I120
I0
I0
I131
I102
I0
I0
I27
I15
I0
I0
I29
I15
I0
I0
I15
I6
I0
I0
I24
I11
I0
I2
I259
I227
I1
I0
I18
I6
I0
I0
I62
I38
I1
I0
I51
I29
I0
I2
I86
I57
I1
I0
I44
I32
I0
I0
I46
I25
I0
I0
I68
I42
I0
tp15
g4
s(I2
I150
I103
I1
I0
I113
I82
I0
I0
I244
I230
I0
I0
I22
I12
I0
I0
I99
I64
I0
I0
I131
I102
I0
I0
I30
I16
I0
I0
I32
I17
I0
I0
I15
I6
I0
I0
I24
I11
I0
I2
I197
I143
I1
I0
I18
I6
I0
I0
I50
I30
I1
I0
I51
I29
I0
I2
I86
I57
I1
I0
I60
I41
I0
I0
I107
I71
I0
I0
I114
I84
I0
tp16
g7
s(I0
I170
I133
I2
I0
I140
I91
I0
I0
I244
I230
I0
I0
I22
I12
I0
I0
I131
I120
I0
I0
I131
I102
I0
I0
I27
I15
I0
I0
I29
I15
I0
I0
I15
I6
I0
I0
I24
I11
I0
I2
I273
I238
I1
I0
I18
I6
I0
I0
I62
I38
I1
I0
I51
I29
I0
I2
I86
I57
I1
I0
I44
I32
I0
I0
I46
I25
I0
I0
I68
I42
I0
tp17
g4
s(I2
I114
I77
I1
I0
I114
I83
I0
I0
I244
I230
I0
I0
I22
I12
I0
I0
I144
I95
I0
I0
I131
I102
I0
I0
I25
I14
I0
I0
I27
I15
I0
I0
I15
I6
I0
I0
I24
I11
I0
I2
I225
I191
I1
I0
I18
I6
I0
I0
I56
I34
I1
I0
I51
I29
I0
I2
I86
I57
I1
I0
I60
I41
I0
I0
I45
I22
I0
I0
I92
I57
I0
tp18
g4
s(I2
I119
I79
I1
I0
I102
I70
I0
I0
I244
I230
I0
I0
I22
I12
I0
I0
I125
I90
I0
I0
I131
I102
I0
I0
I27
I16
I0
I0
I29
I17
I0
I0
I15
I6
I0
I0
I24
I11
I0
I2
I200
I162
I1
I0
I18
I6
I0
I0
I55
I34
I1
I0
I51
I29
I0
I2
I86
I57
I1
I0
I60
I41
I0
I0
I40
I21
I0
I0
I87
I56
I0
tp19
g4
s(I2
I113
I79
I1
I0
I101
I69
I0
I0
I244
I230
I0
I0
I22
I12
I0
I0
I199
I184
I0
I0
I131
I102
I0
I0
I32
I18
I0
I0
I27
I15
I0
I0
I15
I6
I0
I0
I24
I11
I0
I2
I198
I156
I1
I0
I18
I6
I0
I0
I53
I32
I1
I0
I51
I29
I0
I2
I86
I57
I1
I0
I60
I41
I0
I0
I38
I19
I0
I0
I76
I47
I0
tp20
g4
s(I2
I112
I71
I1
I0
I101
I69
I0
I0
I244
I230
I0
I0
I22
I12
I0
I0
I58
I44
I0
I0
I131
I102
I0
I0
I25
I14
I0
I0
I27
I15
I0
I0
I15
I6
I0
I0
I24
I11
I0
I2
I137
I95
I1
I0
I18
I6
I0
I0
I58
I35
I1
I0
I51
I29
I0
I2
I86
I57
I1
I0
I60
I41
I0
I0
I34
I17
I0
I0
I84
I54
I0
tp21
g2
s(I2
I108
I71
I1
I0
I105
I71
I0
I0
I244
I230
I0
I0
I25
I13
I0
I0
I123
I88
I0
I0
I131
I102
I0
I0
I27
I15
I0
I0
I27
I13
I0
I0
I15
I6
I0
I0
I24
I11
I0
I2
I165
I135
I1
I0
I18
I6
I0
I0
I50
I30
I1
I0
I51
I29
I0
I2
I86
I57
I1
I0
I60
I41
I0
I0
I42
I21
I0
I0
I94
I57
I0
tp22
g4
s(I2
I137
I95
I1
I0
I131
I95
I0
I0
I244
I230
I0
I0
I22
I12
I0
I0
I129
I118
I0
I0
I131
I102
I0
I0
I37
I20
I0
I0
I39
I22
I0
I0
I15
I6
I0
I0
I24
I11
I0
I2
I130
I100
I1
I0
I18
I6
I0
I0
I50
I30
I1
I0
I51
I29
I0
I2
I86
I57
I1
I0
I60
I41
I0
I0
I38
I19
I0
I0
I92
I50
I0
tp23
g4
s(I2
I112
I72
I1
I0
I108
I77
I0
I0
I244
I230
I0
I0
I22
I12
I0
I0
I179
I141
I0
I0
I131
I102
I0
I0
I25
I14
I0
I0
I27
I15
I0
I0
I15
I6
I0
I0
I24
I11
I0
I2
I221
I187
I1
I0
I18
I6
I0
I0
I56
I31
I1
I0
I51
I29
I0
I2
I86
I57
I1
I0
I60
I41
I0
I0
I38
I19
I0
I0
I130
I89
I0
tp24
g2
s(I2
I120
I79
I1
I0
I108
I76
I0
I0
I244
I230
I0
I0
I22
I12
I0
I0
I47
I34
I0
I0
I131
I102
I0
I0
I25
I14
I0
I0
I27
I15
I0
I0
I15
I6
I0
I0
I24
I11
I0
I2
I169
I123
I1
I0
I18
I6
I0
I0
I50
I30
I1
I0
I51
I29
I0
I2
I86
I57
I1
I0
I122
I110
I0
I0
I38
I19
I0
I0
I139
I100
I0
tp25
g7
s(I2
I128
I91
I1
I0
I132
I89
I0
I0
I275
I261
I0
I0
I22
I12
I0
I0
I123
I88
I0
I0
I131
I102
I0
I0
I25
I14
I0
I0
I29
I17
I0
I0
I15
I6
I0
I0
I24
I11
I0
I2
I286
I251
I1
I0
I18
I6
I0
I0
I60
I35
I1
I0
I51
I29
I0
I2
I86
I57
I1
I0
I60
I41
I0
I0
I43
I25
I0
I0
I80
I51
I0
tp26
g2
s(I2
I117
I77
I1
I0
I101
I69
I0
I0
I244
I230
I0
I0
I22
I12
I0
I0
I114
I99
I0
I0
I131
I102
I0
I0
I25
I13
I0
I0
I27
I13
I0
I0
I15
I6
I0
I0
I24
I11
I0
I2
I255
I183
I1
I0
I18
I6
I0
I0
I58
I35
I1
I0
I51
I29
I0
I2
I86
I57
I1
I0
I60
I41
I0
I0
I38
I18
I0
I0
I74
I47
I0
tp27
g4
s(I2
I111
I71
I1
I0
I107
I73
I0
I0
I244
I230
I0
I0
I22
I12
I0
I0
I131
I89
I0
I0
I131
I102
I0
I0
I27
I16
I0
I0
I29
I17
I0
I0
I15
I6
I0
I0
I24
I11
I0
I2
I277
I221
I1
I0
I18
I6
I0
I0
I55
I34
I1
I0
I51
I29
I0
I2
I86
I57
I1
I0
I60
I41
I0
I0
I40
I21
I0
I0
I116
I79
I0
tp28
g4
s(I2
I120
I80
I1
I0
I111
I82
I0
I0
I244
I230
I0
I0
I22
I12
I0
I0
I150
I132
I0
I0
I131
I102
I0
I0
I25
I14
I0
I0
I27
I15
I0
I0
I15
I6
I0
I0
I24
I11
I0
I2
I158
I126
I1
I0
I18
I6
I0
I0
I56
I34
I1
I0
I51
I29
I0
I2
I86
I57
I1
I0
I60
I41
I0
I0
I45
I22
I0
I0
I94
I59
I0
tp29
g2
s(I2
I112
I74
I1
I0
I101
I69
I0
I0
I242
I228
I0
I0
I22
I12
I0
I0
I204
I112
I0
I0
I131
I102
I0
I0
I25
I14
I0
I0
I27
I15
I0
I0
I15
I6
I0
I0
I24
I11
I0
I2
I198
I169
I1
I0
I18
I6
I0
I0
I47
I24
I1
I0
I51
I29
I0
I2
I86
I57
I1
I0
I58
I39
I0
I0
I38
I18
I0
I0
I92
I58
I0
tp30
g2
s(I2
I129
I84
I1
I0
I138
I90
I0
I0
I244
I230
I0
I0
I22
I12
I0
I0
I144
I99
I0
I0
I131
I102
I0
I0
I27
I16
I0
I0
I42
I24
I0
I0
I15
I6
I0
I0
I24
I11
I0
I2
I252
I216
I1
I0
I18
I6
I0
I0
I58
I33
I1
I0
I51
I29
I0
I2
I86
I57
I1
I0
I60
I41
I0
I0
I45
I24
I0
I0
I93
I57
I0
tp31
g2
s(I2
I119
I80
I1
I0
I102
I70
I0
I0
I254
I239
I0
I0
I22
I12
I0
I0
I144
I130
I0
I0
I131
I102
I0
I0
I25
I14
I0
I0
I27
I15
I0
I0
I15
I6
I0
I0
I24
I11
I0
I2
I204
I166
I1
I0
I18
I6
I0
I0
I53
I32
I1
I0
I51
I29
I0
I2
I86
I57
I1
I0
I60
I41
I0
I0
I38
I19
I0
I0
I104
I71
I0
tp32
g4
s(I2
I108
I69
I1
I0
I116
I76
I0
I0
I244
I230
I0
I0
I22
I12
I0
I0
I137
I104
I0
I0
I131
I102
I0
I0
I25
I14
I0
I0
I27
I15
I0
I0
I15
I6
I0
I0
I24
I11
I0
I2
I203
I166
I1
I0
I18
I6
I0
I0
I56
I31
I1
I0
I51
I29
I0
I2
I86
I57
I1
I0
I60
I41
I0
I0
I38
I19
I0
I0
I81
I48
I0
tp33
g2
s(I2
I114
I73
I1
I0
I101
I69
I0
I0
I244
I230
I0
I0
I22
I12
I0
I0
I99
I85
I0
I0
I131
I102
I0
I0
I51
I31
I0
I0
I32
I15
I0
I0
I15
I6
I0
I0
I24
I11
I0
I2
I221
I183
I1
I0
I18
I6
I0
I0
I50
I30
I1
I0
I51
I29
I0
I2
I86
I57
I1
I0
I46
I34
I0
I0
I46
I26
I0
I0
I115
I74
I0
tp34
g2
s(I2
I108
I71
I1
I0
I120
I76
I0
I0
I244
I230
I0
I0
I22
I12
I0
I0
I131
I120
I0
I0
I131
I102
I0
I0
I32
I18
I0
I0
I34
I19
I0
I0
I15
I6
I0
I0
I24
I11
I0
I2
I164
I131
I1
I0
I18
I6
I0
I0
I69
I43
I1
I0
I51
I29
I0
I2
I86
I57
I1
I0
I60
I41
I0
I0
I40
I21
I0
I0
I102
I66
I0
tp35
g2
s(I0
I186
I140
I2
I0
I137
I104
I0
I0
I244
I230
I0
I0
I22
I12
I0
I0
I91
I73
I0
I0
I131
I102
I0
I0
I25
I14
I0
I0
I27
I15
I0
I0
I15
I6
I0
I0
I24
I11
I0
I2
I196
I154
I1
I0
I18
I6
I0
I0
I50
I30
I1
I0
I51
I29
I0
I2
I86
I57
I1
I0
I60
I41
I0
I0
I42
I21
I0
I0
I94
I66
I0
tp36
g2
s(I2
I119
I82
I1
I0
I122
I83
I0
I0
I244
I230
I0
I0
I22
I12
I0
I0
I131
I120
I0
I0
I131
I102
I0
I0
I30
I18
I0
I0
I29
I17
I0
I0
I15
I6
I0
I0
I24
I11
I0
I2
I240
I203
I1
I0
I18
I6
I0
I0
I57
I35
I1
I0
I51
I29
I0
I2
I86
I57
I1
I0
I60
I41
I0
I0
I45
I24
I0
I0
I140
I107
I0
tp37
g4
s(I2
I108
I70
I1
I0
I105
I71
I0
I0
I244
I230
I0
I0
I22
I12
I0
I0
I150
I105
I0
I0
I131
I102
I0
I0
I25
I13
I0
I0
I27
I13
I0
I0
I15
I6
I0
I0
I24
I11
I0
I2
I152
I115
I1
I0
I18
I6
I0
I0
I53
I32
I1
I0
I51
I29
I0
I2
I86
I57
I1
I0
I25
I13
I0
I0
I38
I19
I0
I0
I75
I47
I0
tp38
g2
s(I2
I114
I75
I1
I0
I131
I98
I0
I0
I244
I230
I0
I0
I22
I12
I0
I0
I101
I66
I0
I0
I131
I102
I0
I0
I33
I19
I0
I0
I35
I20
I0
I0
I15
I6
I0
I0
I24
I11
I0
I2
I162
I127
I1
I0
I18
I6
I0
I0
I64
I40
I1
I0
I51
I29
I0
I2
I86
I57
I1
I0
I60
I41
I0
I0
I57
I34
I0
I0
I84
I52
I0
tp39
g2
s(I2
I118
I78
I1
I0
I102
I69
I0
I0
I244
I230
I0
I0
I22
I12
I0
I0
I38
I26
I0
I0
I131
I102
I0
I0
I25
I13
I0
I0
I27
I13
I0
I0
I15
I6
I0
I0
I24
I11
I0
I2
I170
I116
I1
I0
I18
I6
I0
I0
I66
I40
I1
I0
I51
I29
I0
I2
I86
I57
I1
I0
I60
I41
I0
I0
I38
I18
I0
I0
I71
I43
I0
tp40
g2
s(I0
I213
I153
I2
I0
I122
I85
I0
I0
I242
I228
I0
I0
I22
I12
I0
I0
I264
I212
I0
I0
I131
I102
I0
I0
I25
I13
I0
I0
I27
I15
I0
I0
I15
I6
I0
I0
I24
I11
I0
I2
I159
I117
I1
I0
I18
I6
I0
I0
I62
I38
I1
I0
I51
I29
I0
I2
I86
I57
I1
I0
I60
I41
I0
I0
I38
I18
I0
I0
I65
I39
I0
tp41
g7
s(I2
I114
I65
I2
I0
I106
I72
I0
I0
I256
I242
I0
I0
I22
I12
I0
I0
I161
I117
I0
I0
I131
I102
I0
I0
I25
I13
I0
I0
I27
I13
I0
I0
I15
I6
I0
I0
I24
I11
I0
I2
I176
I118
I1
I0
I18
I6
I0
I0
I33
I15
I1
I0
I51
I29
I0
I2
I86
I57
I1
I0
I58
I39
I0
I0
I34
I17
I0
I0
I93
I54
I0
tp42
g4
s(I2
I108
I69
I1
I0
I83
I52
I0
I0
I244
I230
I0
I0
I22
I12
I0
I0
I139
I124
I0
I0
I131
I102
I0
I0
I61
I42
I0
I0
I32
I17
I0
I0
I15
I6
I0
I0
I24
I11
I0
I2
I163
I134
I1
I0
I18
I6
I0
I0
I50
I30
I1
I0
I51
I29
I0
I2
I86
I57
I1
I0
I60
I41
I0
I0
I35
I17
I0
I0
I57
I35
I0
tp43
g7
s(I2
I143
I94
I1
I0
I127
I90
I0
I0
I244
I230
I0
I0
I22
I12
I0
I0
I220
I202
I0
I0
I131
I102
I0
I0
I25
I14
I0
I0
I27
I15
I0
I0
I15
I6
I0
I0
I24
I11
I0
I2
I228
I189
I1
I0
I18
I6
I0
I0
I50
I30
I1
I0
I51
I29
I0
I2
I86
I57
I1
I0
I58
I39
I0
I0
I46
I25
I0
I0
I83
I52
I0
tp44
g4
s(I2
I106
I66
I1
I0
I93
I63
I0
I0
I244
I230
I0
I0
I22
I12
I0
I0
I191
I136
I0
I0
I131
I102
I0
I0
I25
I13
I0
I0
I27
I13
I0
I0
I15
I6
I0
I0
I24
I11
I0
I2
I168
I131
I1
I0
I18
I6
I0
I0
I42
I21
I1
I0
I51
I29
I0
I2
I86
I57
I1
I0
I63
I42
I0
I0
I38
I18
I0
I0
I91
I53
I0
I2
I106
I66
I1
I0
I93
I63
I0
I0
I244
I230
I0
I0
I22
I12
I0
I0
I191
I136
I0
I0
I131
I102
I0
I0
I25
I13
I0
I0
I27
I13
I0
I0
I15
I6
I0
I0
I24
I11
I0
I2
I168
I131
I1
I0
I18
I6
I0
I0
I42
I21
I1
I0
I51
I29
I0
I2
I86
I57
I1
I0
I63
I42
I0
I0
I38
I18
I0
I0
I91
I53
I0
tp45
g4
s(I2
I110
I66
I1
I0
I108
I77
I0
I0
I244
I230
I0
I0
I22
I12
I0
I0
I129
I88
I0
I0
I131
I102
I0
I0
I25
I13
I0
I0
I27
I13
I0
I0
I15
I6
I0
I0
I24
I11
I0
I2
I213
I158
I1
I0
I18
I6
I0
I0
I46
I23
I1
I0
I51
I29
I0
I2
I86
I57
I1
I0
I44
I32
I0
I0
I44
I23
I0
I0
I99
I63
I0
tp46
g4
s(I2
I119
I79
I1
I0
I106
I77
I0
I0
I244
I230
I0
I0
I22
I12
I0
I0
I157
I119
I0
I0
I131
I102
I0
I0
I27
I16
I0
I0
I29
I17
I0
I0
I15
I6
I0
I0
I24
I11
I0
I2
I181
I138
I1
I0
I18
I6
I0
I0
I58
I36
I1
I0
I51
I29
I0
I2
I86
I57
I1
I0
I44
I32
I0
I0
I40
I21
I0
I0
I66
I42
I0
tp47
g2
s(I2
I113
I75
I1
I0
I101
I69
I0
I0
I244
I230
I0
I0
I22
I12
I0
I0
I185
I141
I0
I0
I131
I102
I0
I0
I25
I14
I0
I0
I27
I15
I0
I0
I15
I6
I0
I0
I24
I11
I0
I2
I169
I126
I1
I0
I18
I6
I0
I0
I50
I30
I1
I0
I51
I29
I0
I2
I86
I57
I1
I0
I63
I51
I0
I0
I55
I29
I0
I0
I121
I82
I0
tp48
g4
s(I2
I112
I75
I1
I0
I130
I97
I0
I0
I244
I230
I0
I0
I22
I12
I0
I0
I123
I85
I0
I0
I131
I102
I0
I0
I25
I14
I0
I0
I27
I15
I0
I0
I15
I6
I0
I0
I24
I11
I0
I2
I174
I143
I1
I0
I18
I6
I0
I0
I57
I32
I1
I0
I51
I29
I0
I2
I86
I57
I1
I0
I60
I41
I0
I0
I38
I19
I0
I0
I95
I60
I0
tp49
g4
s(I2
I134
I93
I1
I0
I104
I71
I0
I0
I244
I230
I0
I0
I22
I12
I0
I0
I152
I107
I0
I0
I131
I102
I0
I0
I27
I16
I0
I0
I29
I17
I0
I0
I15
I6
I0
I0
I24
I11
I0
I2
I172
I135
I1
I0
I18
I6
I0
I0
I64
I40
I1
I0
I51
I29
I0
I2
I86
I57
I1
I0
I60
I41
I0
I0
I40
I21
I0
I0
I100
I63
I0
tp50
g4
s(I2
I141
I104
I1
I0
I137
I99
I0
I0
I244
I230
I0
I0
I22
I12
I0
I0
I129
I118
I0
I0
I131
I102
I0
I0
I48
I28
I0
I0
I39
I22
I0
I0
I15
I6
I0
I0
I24
I11
I0
I2
I168
I135
I1
I0
I18
I6
I0
I0
I58
I33
I1
I0
I51
I29
I0
I2
I86
I57
I1
I0
I60
I41
I0
I0
I40
I20
I0
I0
I100
I61
I0
tp51
g7
s(I2
I143
I101
I1
I0
I118
I84
I0
I0
I244
I230
I0
I0
I22
I12
I0
I0
I216
I166
I0
I0
I131
I102
I0
I0
I27
I16
I0
I0
I36
I22
I0
I0
I15
I6
I0
I0
I24
I11
I0
I2
I232
I184
I1
I0
I18
I6
I0
I0
I57
I36
I1
I0
I51
I29
I0
I2
I86
I57
I1
I0
I60
I41
I0
I0
I50
I28
I0
I0
I81
I53
I0
tp52
g4
s(I2
I112
I76
I1
I0
I132
I93
I0
I0
I244
I230
I0
I0
I22
I12
I0
I0
I181
I143
I0
I0
I131
I102
I0
I0
I27
I16
I0
I0
I29
I17
I0
I0
I15
I6
I0
I0
I24
I11
I0
I2
I219
I181
I1
I0
I18
I6
I0
I0
I64
I40
I1
I0
I51
I29
I0
I2
I86
I57
I1
I0
I60
I41
I0
I0
I40
I21
I0
I0
I237
I163
I0
tp53
g2
s(I2
I112
I75
I1
I0
I110
I72
I0
I0
I244
I230
I0
I0
I22
I12
I0
I0
I153
I116
I0
I0
I131
I102
I0
I0
I25
I14
I0
I0
I27
I15
I0
I0
I15
I6
I0
I0
I24
I11
I0
I2
I215
I184
I1
I0
I18
I6
I0
I0
I53
I29
I1
I0
I51
I29
I0
I2
I86
I57
I1
I0
I60
I41
I0
I0
I38
I19
I0
I0
I77
I50
I0
tp54
g2
s(I2
I121
I82
I1
I0
I137
I99
I0
I0
I244
I230
I0
I0
I22
I12
I0
I0
I129
I118
I0
I0
I131
I102
I0
I0
I25
I14
I0
I0
I27
I15
I0
I0
I15
I6
I0
I0
I24
I11
I0
I2
I271
I217
I1
I0
I18
I6
I0
I0
I53
I32
I1
I0
I51
I29
I0
I2
I86
I57
I1
I0
I60
I41
I0
I0
I73
I55
I0
I0
I93
I68
I0
tp55
g4
s(I2
I111
I72
I1
I0
I104
I75
I0
I0
I244
I230
I0
I0
I22
I12
I0
I0
I125
I90
I0
I0
I131
I102
I0
I0
I25
I14
I0
I0
I27
I15
I0
I0
I15
I6
I0
I0
I24
I11
I0
I2
I202
I164
I1
I0
I18
I6
I0
I0
I61
I38
I1
I0
I51
I29
I0
I2
I86
I57
I1
I0
I63
I51
I0
I0
I40
I21
I0
I0
I74
I46
I0
tp56
g4
s(I2
I181
I126
I1
I0
I104
I75
I0
I0
I244
I230
I0
I0
I22
I12
I0
I0
I129
I88
I0
I0
I131
I102
I0
I0
I32
I19
I0
I0
I34
I20
I0
I0
I15
I6
I0
I0
I24
I11
I0
I2
I363
I318
I1
I0
I18
I6
I0
I0
I62
I38
I1
I0
I51
I29
I0
I2
I86
I57
I1
I0
I60
I41
I0
I0
I45
I22
I0
I0
I81
I49
I0
tp57
g2
s(I2
I119
I81
I1
I0
I108
I77
I0
I0
I244
I230
I0
I0
I22
I12
I0
I0
I37
I25
I0
I0
I131
I102
I0
I0
I25
I13
I0
I0
I27
I13
I0
I0
I15
I6
I0
I0
I24
I11
I0
I2
I170
I130
I1
I0
I18
I6
I0
I0
I61
I38
I1
I0
I51
I29
I0
I2
I86
I57
I1
I0
I44
I32
I0
I0
I40
I20
I0
I0
I92
I52
I0
tp58
g4
s(I2
I140
I98
I1
I0
I131
I94
I0
I0
I244
I230
I0
I0
I22
I12
I0
I0
I123
I88
I0
I0
I131
I102
I0
I0
I33
I18
I0
I0
I32
I17
I0
I0
I15
I6
I0
I0
I24
I11
I0
I4
I254
I224
I3
I0
I18
I6
I0
I0
I56
I31
I1
I0
I51
I29
I0
I2
I86
I57
I1
I0
I79
I60
I0
I0
I38
I19
I0
I0
I72
I44
I0
tp59
g4
s(I2
I109
I75
I1
I0
I111
I75
I0
I0
I244
I230
I0
I0
I22
I12
I0
I0
I131
I90
I0
I0
I131
I102
I0
I0
I27
I16
I0
I0
I29
I17
I0
I0
I15
I6
I0
I0
I24
I11
I0
I2
I164
I121
I1
I0
I18
I6
I0
I0
I61
I38
I1
I0
I51
I29
I0
I2
I86
I57
I1
I0
I60
I41
I0
I0
I47
I24
I0
I0
I83
I55
I0
tp60
g2
s(I2
I168
I105
I2
I0
I134
I93
I0
I0
I244
I230
I0
I0
I22
I12
I0
I0
I131
I120
I0
I0
I131
I102
I0
I0
I47
I32
I0
I0
I32
I17
I0
I0
I15
I6
I0
I0
I24
I11
I0
I2
I243
I191
I1
I0
I18
I6
I0
I0
I64
I37
I1
I0
I51
I29
I0
I2
I86
I57
I1
I0
I60
I41
I0
I0
I40
I21
I0
I0
I108
I79
I0
tp61
g4
s(I2
I123
I85
I1
I0
I106
I77
I0
I0
I244
I230
I0
I0
I22
I12
I0
I0
I142
I126
I0
I0
I131
I102
I0
I0
I27
I16
I0
I0
I29
I17
I0
I0
I15
I6
I0
I0
I24
I11
I0
I2
I227
I173
I1
I0
I18
I6
I0
I0
I63
I40
I1
I0
I51
I29
I0
I2
I86
I57
I1
I0
I60
I41
I0
I0
I48
I25
I0
I0
I75
I48
I0
tp62
g4
s(I2
I126
I87
I1
I0
I106
I73
I0
I0
I244
I230
I0
I0
I22
I12
I0
I0
I131
I120
I0
I0
I131
I102
I0
I0
I27
I15
I0
I0
I29
I15
I0
I0
I15
I6
I0
I0
I24
I11
I0
I2
I175
I139
I1
I0
I18
I6
I0
I0
I59
I36
I1
I0
I51
I29
I0
I2
I86
I57
I1
I0
I60
I41
I0
I0
I40
I21
I0
I0
I80
I48
I0
tp63
g4
s(I2
I120
I84
I1
I0
I104
I75
I0
I0
I244
I230
I0
I0
I22
I12
I0
I0
I58
I43
I0
I0
I131
I102
I0
I0
I25
I14
I0
I0
I27
I15
I0
I0
I15
I6
I0
I0
I24
I11
I0
I2
I309
I267
I1
I0
I18
I6
I0
I0
I53
I29
I1
I0
I51
I29
I0
I2
I86
I57
I1
I0
I60
I41
I0
I0
I38
I18
I0
I0
I109
I70
I0
tp64
g4
s(I2
I119
I77
I1
I0
I103
I75
I0
I0
I244
I230
I0
I0
I22
I12
I0
I0
I129
I118
I0
I0
I131
I102
I0
I0
I30
I16
I0
I0
I27
I15
I0
I0
I15
I6
I0
I0
I24
I11
I0
I2
I187
I150
I1
I0
I18
I6
I0
I0
I55
I34
I1
I0
I51
I29
I0
I2
I86
I57
I1
I0
I58
I39
I0
I0
I38
I19
I0
I0
I94
I60
I0
tp65
g4
s(I2
I103
I64
I1
I0
I124
I89
I0
I0
I244
I230
I0
I0
I22
I12
I0
I0
I218
I174
I0
I0
I131
I102
I0
I0
I28
I16
I0
I0
I27
I15
I0
I0
I15
I6
I0
I0
I24
I11
I0
I2
I179
I125
I1
I0
I18
I6
I0
I0
I58
I36
I1
I0
I51
I29
I0
I2
I86
I57
I1
I0
I60
I41
I0
I0
I58
I36
I0
I0
I84
I50
I0
tp66
g2
s(I2
I104
I65
I1
I0
I104
I75
I0
I0
I244
I230
I0
I0
I22
I12
I0
I0
I114
I92
I0
I0
I131
I102
I0
I0
I25
I13
I0
I0
I27
I15
I0
I0
I15
I6
I0
I0
I24
I11
I0
I2
I139
I106
I1
I0
I18
I6
I0
I0
I53
I29
I1
I0
I51
I29
I0
I2
I86
I57
I1
I0
I60
I41
I0
I0
I42
I21
I0
I0
I94
I59
I0
tp67
g2
s(I2
I139
I99
I1
I0
I123
I87
I0
I0
I244
I230
I0
I0
I22
I12
I0
I0
I125
I90
I0
I0
I131
I102
I0
I0
I30
I16
I0
I0
I32
I17
I0
I0
I15
I6
I0
I0
I24
I11
I0
I2
I208
I156
I1
I0
I18
I6
I0
I0
I58
I35
I1
I0
I51
I29
I0
I2
I86
I57
I1
I0
I60
I41
I0
I0
I92
I60
I0
I0
I84
I49
I1
tp68
g7
s(I2
I127
I85
I1
I0
I108
I77
I0
I0
I244
I230
I0
I0
I22
I12
I0
I0
I123
I88
I0
I0
I131
I102
I0
I0
I25
I14
I0
I0
I27
I15
I0
I0
I15
I6
I0
I0
I24
I11
I0
I2
I202
I170
I1
I0
I18
I6
I0
I0
I42
I21
I1
I0
I51
I29
I0
I2
I86
I57
I1
I0
I58
I39
I0
I0
I38
I19
I0
I0
I86
I56
I0
tp69
g2
s(I2
I115
I77
I1
I0
I104
I75
I0
I0
I244
I230
I0
I0
I22
I12
I0
I0
I132
I111
I0
I0
I131
I102
I0
I0
I25
I14
I0
I0
I27
I15
I0
I0
I15
I6
I0
I0
I24
I11
I0
I2
I222
I167
I1
I0
I18
I6
I0
I0
I56
I31
I1
I0
I51
I29
I0
I2
I86
I57
I1
I0
I60
I41
I0
I0
I38
I19
I0
I0
I97
I61
I0
tp70
g4
s(I2
I116
I77
I1
I0
I137
I87
I0
I0
I244
I230
I0
I0
I22
I12
I0
I0
I199
I151
I0
I0
I131
I102
I0
I0
I30
I15
I0
I0
I32
I15
I0
I0
I15
I6
I0
I0
I24
I11
I0
I2
I225
I160
I1
I0
I18
I6
I0
I0
I52
I28
I1
I0
I51
I29
I0
I2
I86
I57
I1
I0
I90
I71
I0
I0
I47
I26
I0
I0
I82
I46
I0
tp71
g4
s(I2
I127
I86
I1
I0
I124
I87
I0
I0
I244
I230
I0
I0
I22
I12
I0
I0
I144
I95
I0
I0
I131
I102
I0
I0
I25
I14
I0
I0
I27
I15
I0
I0
I15
I6
I0
I0
I24
I11
I0
I2
I194
I166
I1
I0
I18
I6
I0
I0
I58
I33
I1
I0
I51
I29
I0
I2
I86
I57
I1
I0
I60
I41
I0
I0
I34
I18
I0
I0
I99
I57
I0
tp72
g4
s(I2
I98
I64
I1
I0
I121
I84
I0
I0
I244
I230
I0
I0
I22
I12
I0
I0
I143
I102
I0
I0
I131
I102
I0
I0
I25
I14
I0
I0
I27
I15
I0
I0
I15
I6
I0
I0
I24
I11
I0
I2
I202
I144
I1
I0
I18
I6
I0
I0
I62
I38
I1
I0
I51
I29
I0
I2
I86
I57
I1
I0
I60
I41
I0
I0
I44
I23
I0
I0
I82
I48
I0
tp73
g7
s(I2
I183
I128
I1
I0
I126
I79
I0
I0
I244
I230
I0
I0
I22
I12
I0
I0
I129
I88
I0
I0
I131
I102
I0
I0
I60
I34
I1
I0
I32
I15
I0
I0
I15
I6
I0
I0
I24
I11
I0
I2
I237
I174
I1
I0
I18
I6
I0
I0
I53
I29
I1
I0
I51
I29
I0
I2
I86
I57
I1
I0
I60
I41
I0
I0
I40
I20
I0
I0
I164
I127
I0
tp74
g4
s(I2
I116
I81
I1
I0
I111
I77
I0
I0
I244
I230
I0
I0
I22
I12
I0
I0
I125
I111
I0
I0
I131
I102
I0
I0
I27
I15
I0
I0
I29
I15
I0
I0
I15
I6
I0
I0
I24
I11
I0
I2
I222
I172
I1
I0
I18
I6
I0
I0
I58
I36
I1
I0
I51
I29
I0
I2
I86
I57
I1
I0
I60
I41
I0
I0
I40
I20
I0
I0
I106
I69
I0
tp75
g4
s(I2
I116
I78
I1
I0
I102
I70
I0
I0
I244
I230
I0
I0
I22
I12
I0
I0
I116
I74
I0
I0
I131
I102
I0
I0
I25
I14
I0
I0
I27
I15
I0
I0
I15
I6
I0
I0
I24
I11
I0
I2
I191
I159
I1
I0
I18
I6
I0
I0
I50
I30
I1
I0
I51
I29
I0
I2
I86
I57
I1
I0
I60
I41
I0
I0
I38
I19
I0
I0
I77
I50
I0
tp76
g4
s(I2
I100
I64
I1
I0
I111
I76
I0
I0
I244
I230
I0
I0
I22
I12
I0
I0
I136
I117
I0
I0
I131
I102
I0
I0
I27
I16
I0
I0
I29
I17
I0
I0
I15
I6
I0
I0
I24
I11
I0
I2
I153
I115
I1
I0
I18
I6
I0
I0
I55
I34
I1
I0
I51
I29
I0
I2
I86
I57
I1
I0
I60
I41
I0
I0
I40
I21
I0
I0
I62
I39
I0
tp77
g4
s(I2
I103
I68
I1
I0
I114
I85
I0
I0
I244
I230
I0
I0
I22
I12
I0
I0
I116
I74
I0
I0
I131
I102
I0
I0
I32
I18
I0
I0
I38
I23
I0
I0
I15
I6
I0
I0
I24
I11
I0
I2
I230
I193
I1
I0
I18
I6
I0
I0
I68
I45
I1
I0
I51
I29
I0
I2
I86
I57
I1
I0
I60
I41
I0
I0
I52
I29
I0
I0
I99
I70
I0
tp78
g7
s(I2
I100
I65
I1
I0
I99
I64
I0
I0
I244
I230
I0
I0
I22
I12
I0
I0
I138
I96
I0
I0
I131
I102
I0
I0
I25
I13
I0
I0
I27
I13
I0
I0
I15
I6
I0
I0
I24
I11
I0
I2
I169
I131
I1
I0
I18
I6
I0
I0
I53
I32
I1
I0
I51
I29
I0
I2
I86
I57
I1
I0
I60
I41
I0
I0
I38
I18
I0
I0
I71
I42
I0
tp79
g7
s(I2
I118
I82
I1
I0
I101
I69
I0
I0
I244
I230
I0
I0
I22
I12
I0
I0
I40
I28
I0
I0
I131
I102
I0
I0
I25
I14
I0
I0
I27
I15
I0
I0
I15
I6
I0
I0
I24
I11
I0
I2
I156
I123
I1
I0
I18
I6
I0
I0
I57
I35
I1
I0
I51
I29
I0
I2
I86
I57
I1
I0
I60
I41
I0
I0
I40
I21
I0
I0
I96
I60
I0
tp80
g2
s(I2
I111
I76
I1
I0
I113
I82
I0
I0
I244
I230
I0
I0
I22
I12
I0
I0
I131
I120
I0
I0
I131
I102
I0
I0
I27
I16
I0
I0
I29
I17
I0
I0
I15
I6
I0
I0
I24
I11
I0
I2
I206
I160
I1
I0
I18
I6
I0
I0
I44
I23
I1
I0
I51
I29
I0
I2
I86
I57
I1
I0
I60
I41
I0
I0
I44
I23
I0
I0
I116
I84
I0
tp81
g4
s(I2
I111
I71
I1
I0
I104
I75
I0
I0
I244
I230
I0
I0
I22
I12
I0
I0
I150
I105
I0
I0
I131
I102
I0
I0
I25
I14
I0
I0
I27
I15
I0
I0
I15
I6
I0
I0
I24
I11
I0
I2
I212
I164
I1
I0
I18
I6
I0
I0
I62
I38
I1
I0
I51
I29
I0
I2
I86
I57
I1
I0
I60
I41
I0
I0
I35
I17
I0
I0
I69
I42
I0
tp82
g4
s(I2
I106
I69
I1
I0
I100
I66
I0
I0
I244
I230
I0
I0
I22
I12
I0
I0
I40
I28
I0
I0
I131
I102
I0
I0
I32
I17
I0
I0
I34
I17
I0
I0
I15
I6
I0
I0
I24
I11
I0
I2
I159
I123
I1
I0
I18
I6
I0
I0
I52
I32
I1
I0
I51
I29
I0
I2
I86
I57
I1
I0
I60
I41
I0
I0
I40
I20
I0
I0
I72
I46
I0
tp83
g2
s(I2
I135
I89
I1
I0
I123
I89
I0
I0
I244
I230
I0
I0
I22
I12
I0
I0
I131
I120
I0
I0
I131
I102
I0
I0
I23
I13
I0
I0
I24
I12
I0
I0
I15
I6
I0
I0
I24
I11
I0
I2
I214
I161
I1
I0
I18
I6
I0
I0
I58
I36
I1
I0
I53
I30
I0
I2
I86
I57
I1
I0
I60
I41
I0
I0
I38
I19
I0
I0
I105
I75
I0
tp84
g4
s(I2
I128
I90
I1
I0
I109
I76
I0
I0
I244
I230
I0
I0
I22
I12
I0
I0
I131
I90
I0
I0
I131
I102
I0
I0
I34
I18
I0
I0
I29
I17
I0
I0
I15
I6
I0
I0
I24
I11
I0
I2
I195
I156
I1
I0
I18
I6
I0
I0
I58
I33
I1
I0
I51
I29
I0
I2
I86
I57
I1
I0
I60
I41
I0
I0
I40
I21
I0
I0
I107
I68
I0
tp85
g2
s(I2
I119
I71
I1
I0
I115
I79
I0
I0
I244
I230
I0
I0
I22
I12
I0
I0
I185
I141
I0
I0
I131
I102
I0
I0
I30
I16
I0
I0
I32
I17
I0
I0
I15
I6
I0
I0
I24
I11
I0
I2
I170
I126
I1
I0
I18
I6
I0
I0
I47
I24
I1
I0
I51
I29
I0
I2
I86
I57
I1
I0
I58
I39
I0
I0
I38
I19
I0
I0
I126
I90
I0
tp86
g2
s(I2
I116
I74
I1
I0
I110
I78
I0
I0
I244
I230
I0
I0
I22
I12
I0
I0
I185
I171
I0
I0
I131
I102
I0
I0
I35
I22
I0
I0
I32
I17
I0
I0
I15
I6
I0
I0
I24
I11
I0
I2
I178
I137
I1
I0
I18
I6
I0
I0
I61
I34
I1
I0
I51
I29
I0
I2
I86
I57
I1
I0
I63
I51
I0
I0
I45
I22
I0
I0
I86
I58
I0
tp87
g4
s(I2
I119
I81
I1
I0
I122
I87
I0
I0
I244
I230
I0
I0
I22
I12
I0
I0
I138
I96
I0
I0
I131
I102
I0
I0
I35
I19
I0
I0
I37
I19
I0
I0
I15
I6
I0
I0
I24
I11
I0
I2
I142
I109
I1
I0
I18
I6
I0
I0
I55
I34
I1
I0
I51
I29
I0
I2
I86
I57
I1
I0
I63
I51
I0
I0
I38
I19
I0
I0
I88
I55
I0
tp88
g7
s(I2
I119
I78
I1
I0
I104
I75
I0
I0
I244
I230
I0
I0
I22
I12
I0
I0
I91
I73
I0
I0
I131
I102
I0
I0
I30
I16
I0
I0
I32
I17
I0
I0
I15
I6
I0
I0
I24
I11
I0
I2
I167
I136
I1
I0
I18
I6
I0
I0
I56
I31
I1
I0
I51
I29
I0
I2
I86
I57
I1
I0
I60
I41
I0
I0
I38
I19
I0
I0
I84
I54
I0
tp89
g2
s(I2
I126
I82
I1
I0
I102
I69
I0
I0
I244
I230
I0
I0
I22
I12
I0
I0
I129
I118
I0
I0
I131
I102
I0
I0
I25
I14
I0
I0
I27
I15
I0
I0
I15
I6
I0
I0
I24
I11
I0
I2
I157
I113
I1
I0
I18
I6
I0
I0
I48
I26
I1
I0
I51
I29
I0
I2
I86
I57
I1
I0
I60
I41
I0
I0
I38
I19
I0
I0
I108
I72
I0
tp90
g2
s(I2
I127
I86
I1
I0
I111
I77
I0
I0
I244
I230
I0
I0
I22
I12
I0
I0
I138
I119
I0
I0
I131
I102
I0
I0
I29
I17
I0
I0
I31
I17
I0
I0
I15
I6
I0
I0
I24
I11
I0
I2
I277
I242
I1
I0
I18
I6
I0
I0
I57
I33
I1
I0
I51
I29
I0
I2
I86
I57
I1
I0
I63
I51
I0
I0
I40
I21
I0
I0
I87
I57
I0
tp91
g4
s(I2
I123
I83
I1
I0
I130
I93
I0
I0
I244
I230
I0
I0
I22
I12
I0
I0
I38
I26
I0
I0
I131
I102
I0
I0
I25
I13
I0
I0
I27
I13
I0
I0
I15
I6
I0
I0
I24
I11
I0
I2
I262
I223
I1
I0
I18
I6
I0
I0
I53
I32
I1
I0
I51
I29
I0
I2
I86
I57
I1
I0
I60
I41
I0
I0
I42
I21
I0
I0
I156
I108
I0
tp92
g4
s(I2
I103
I65
I1
I0
I117
I80
I0
I0
I244
I230
I0
I0
I22
I12
I0
I0
I131
I119
I0
I0
I131
I102
I0
I0
I25
I13
I0
I0
I27
I13
I0
I0
I15
I6
I0
I0
I24
I11
I0
I2
I205
I167
I1
I0
I18
I6
I0
I0
I56
I31
I1
I0
I51
I29
I0
I2
I86
I57
I1
I0
I60
I41
I0
I0
I38
I19
I0
I0
I147
I108
I0
tp93
g2
s(I2
I140
I95
I1
I0
I124
I88
I0
I0
I403
I389
I0
I0
I22
I12
I0
I0
I131
I90
I0
I0
I131
I102
I0
I0
I30
I16
I0
I0
I32
I17
I0
I0
I15
I6
I0
I0
I24
I11
I0
I2
I186
I153
I1
I0
I18
I6
I0
I0
I61
I36
I1
I0
I51
I29
I0
I2
I86
I57
I1
I0
I60
I41
I0
I0
I65
I40
I0
I0
I111
I73
I0
tp94
g7
s(I2
I112
I71
I1
I0
I105
I71
I0
I0
I244
I230
I0
I0
I22
I12
I0
I0
I133
I98
I0
I0
I131
I102
I0
I0
I28
I16
I0
I0
I27
I15
I0
I0
I15
I6
I0
I0
I24
I11
I0
I2
I190
I136
I1
I0
I18
I6
I0
I0
I53
I29
I1
I0
I51
I29
I0
I2
I86
I57
I1
I0
I60
I41
I0
I0
I42
I21
I0
I0
I78
I49
I0
tp95
g4
s(I2
I126
I86
I1
I0
I108
I73
I0
I0
I242
I228
I0
I0
I22
I12
I0
I0
I143
I102
I0
I0
I131
I102
I0
I0
I25
I14
I0
I0
I27
I15
I0
I0
I15
I6
I0
I0
I24
I11
I0
I2
I187
I149
I1
I0
I18
I6
I0
I0
I53
I29
I1
I0
I51
I29
I0
I2
I86
I57
I1
I0
I63
I51
I0
I0
I38
I19
I0
I0
I94
I59
I0
tp96
g4
s(I2
I124
I87
I1
I0
I111
I80
I0
I0
I244
I230
I0
I0
I22
I12
I0
I0
I123
I88
I0
I0
I131
I102
I0
I0
I25
I14
I0
I0
I27
I15
I0
I0
I15
I6
I0
I0
I24
I11
I0
I2
I205
I152
I1
I0
I18
I6
I0
I0
I56
I34
I1
I0
I51
I29
I0
I2
I86
I57
I1
I0
I60
I41
I0
I0
I42
I21
I0
I0
I112
I84
I0
tp97
g4
s(I2
I122
I78
I1
I0
I108
I77
I0
I0
I244
I230
I0
I0
I22
I12
I0
I0
I150
I105
I0
I0
I131
I102
I0
I0
I25
I13
I0
I0
I27
I13
I0
I0
I15
I6
I0
I0
I24
I11
I0
I2
I168
I139
I1
I0
I18
I6
I0
I0
I56
I31
I1
I0
I51
I29
I0
I2
I86
I57
I1
I0
I60
I41
I0
I0
I38
I19
I0
I0
I94
I58
I0
tp98
g4
s(I2
I98
I62
I1
I0
I98
I64
I0
I0
I244
I230
I0
I0
I22
I12
I0
I0
I134
I98
I0
I0
I131
I102
I0
I0
I37
I21
I0
I0
I27
I15
I0
I0
I15
I6
I0
I0
I24
I11
I0
I2
I232
I191
I1
I0
I18
I6
I0
I0
I58
I35
I1
I0
I51
I29
I0
I2
I86
I57
I1
I0
I60
I41
I0
I0
I35
I20
I0
I0
I61
I42
I0
tp99
g4
s(I2
I120
I84
I1
I0
I107
I83
I0
I0
I244
I230
I0
I0
I22
I12
I0
I0
I91
I73
I0
I0
I131
I102
I0
I0
I30
I16
I0
I0
I27
I15
I0
I0
I15
I6
I0
I0
I24
I11
I0
I2
I225
I173
I1
I0
I18
I6
I0
I0
I65
I44
I1
I0
I51
I29
I0
I2
I86
I57
I1
I0
I60
I41
I0
I0
I38
I19
I0
I0
I82
I54
I0
tp100
g2
s(I2
I117
I79
I1
I0
I109
I75
I0
I0
I244
I230
I0
I0
I22
I12
I0
I0
I179
I141
I0
I0
I131
I102
I0
I0
I25
I13
I0
I0
I27
I13
I0
I0
I15
I6
I0
I0
I24
I11
I0
I2
I163
I131
I1
I0
I18
I6
I0
I0
I67
I37
I1
I0
I51
I29
I0
I2
I86
I57
I1
I0
I60
I41
I0
I0
I40
I19
I0
I0
I101
I65
I0
tp101
g2
s(I2
I124
I83
I1
I0
I105
I71
I0
I0
I244
I230
I0
I0
I22
I12
I0
I0
I129
I118
I0
I0
I131
I102
I0
I0
I25
I14
I0
I0
I32
I17
I0
I0
I15
I6
I0
I0
I24
I11
I0
I2
I176
I136
I1
I0
I18
I6
I0
I0
I53
I32
I1
I0
I51
I29
I0
I2
I86
I57
I1
I0
I60
I41
I0
I0
I38
I18
I0
I0
I87
I54
I0
tp102
g4
s(I2
I116
I81
I1
I0
I104
I75
I0
I0
I244
I230
I0
I0
I22
I12
I0
I0
I115
I74
I0
I0
I131
I102
I0
I0
I30
I16
I0
I0
I32
I17
I0
I0
I15
I6
I0
I0
I24
I11
I0
I2
I211
I174
I1
I0
I18
I6
I0
I0
I56
I34
I1
I0
I51
I29
I0
I2
I86
I57
I1
I0
I60
I41
I0
I0
I38
I19
I0
I0
I131
I98
I0
tp103
g4
s(I2
I109
I72
I1
I0
I117
I78
I0
I0
I244
I230
I0
I0
I22
I12
I0
I0
I38
I26
I0
I0
I131
I102
I0
I0
I25
I14
I0
I0
I27
I15
I0
I0
I15
I6
I0
I0
I24
I11
I0
I2
I183
I131
I1
I0
I18
I6
I0
I0
I56
I31
I1
I0
I51
I29
I0
I2
I86
I57
I1
I0
I60
I41
I0
I0
I38
I19
I0
I0
I76
I43
I0
tp104
g2
s(I2
I112
I74
I1
I0
I113
I81
I0
I0
I244
I230
I0
I0
I22
I12
I0
I0
I125
I90
I0
I0
I131
I102
I0
I0
I27
I16
I0
I0
I29
I17
I0
I0
I15
I6
I0
I0
I24
I11
I0
I2
I225
I182
I1
I0
I18
I6
I0
I0
I58
I36
I1
I0
I51
I29
I0
I2
I86
I57
I1
I0
I60
I41
I0
I0
I40
I21
I0
I0
I100
I62
I0
tp105
g4
s(I2
I110
I73
I1
I0
I132
I86
I0
I0
I244
I230
I0
I0
I22
I12
I0
I0
I199
I184
I0
I0
I131
I102
I0
I0
I25
I13
I0
I0
I27
I13
I0
I0
I15
I6
I0
I0
I24
I11
I0
I2
I238
I189
I1
I0
I18
I6
I0
I0
I53
I32
I1
I0
I51
I29
I0
I2
I86
I57
I1
I0
I60
I41
I0
I0
I38
I18
I0
I0
I87
I55
I0
tp106
g4
s(I2
I113
I75
I1
I0
I117
I79
I0
I0
I244
I230
I0
I0
I22
I12
I0
I0
I123
I88
I0
I0
I131
I102
I0
I0
I25
I14
I0
I0
I27
I15
I0
I0
I15
I6
I0
I0
I24
I11
I0
I2
I175
I140
I1
I0
I18
I6
I0
I0
I53
I32
I1
I0
I51
I29
I0
I2
I86
I57
I1
I0
I60
I41
I0
I0
I40
I20
I0
I0
I86
I56
I0
tp107
g4
s(I2
I108
I70
I1
I0
I104
I75
I0
I0
I244
I230
I0
I0
I22
I12
I0
I0
I91
I73
I0
I0
I131
I102
I0
I0
I25
I14
I0
I0
I27
I15
I0
I0
I15
I6
I0
I0
I24
I11
I0
I2
I187
I142
I1
I0
I18
I6
I0
I0
I53
I32
I1
I0
I51
I29
I0
I2
I86
I57
I1
I0
I60
I41
I0
I0
I42
I21
I0
I0
I86
I56
I0
tp108
g2
s(I2
I100
I67
I1
I0
I113
I78
I0
I0
I244
I230
I0
I0
I22
I12
I0
I0
I138
I96
I0
I0
I131
I102
I0
I0
I25
I13
I0
I0
I27
I13
I0
I0
I15
I6
I0
I0
I24
I11
I0
I2
I189
I151
I1
I0
I18
I6
I0
I0
I56
I33
I1
I0
I51
I29
I0
I2
I86
I57
I1
I0
I66
I52
I0
I0
I38
I18
I0
I0
I98
I63
I0
tp109
g4
s(I2
I127
I87
I1
I0
I106
I77
I0
I0
I244
I230
I0
I0
I22
I12
I0
I0
I91
I73
I0
I0
I131
I102
I0
I0
I27
I15
I0
I0
I29
I15
I0
I0
I15
I6
I0
I0
I24
I11
I0
I2
I212
I147
I1
I0
I18
I6
I0
I0
I58
I36
I1
I0
I51
I29
I0
I2
I86
I57
I1
I0
I60
I41
I0
I0
I40
I20
I0
I0
I92
I59
I0
tp110
g2
s(I3
I142
I92
I2
I0
I113
I77
I0
I0
I244
I230
I0
I0
I22
I12
I0
I0
I112
I97
I0
I0
I131
I102
I0
I0
I26
I15
I0
I0
I28
I16
I0
I0
I15
I6
I0
I0
I24
I11
I0
I2
I151
I106
I1
I0
I18
I6
I0
I0
I69
I41
I1
I0
I51
I29
I0
I2
I86
I57
I1
I0
I60
I41
I0
I0
I38
I19
I0
I0
I119
I85
I0
tp111
g2
s(I2
I123
I88
I1
I0
I146
I101
I0
I0
I244
I230
I0
I0
I22
I12
I0
I0
I60
I46
I0
I0
I131
I102
I0
I0
I25
I14
I0
I0
I27
I15
I0
I0
I15
I6
I0
I0
I24
I11
I0
I2
I289
I251
I1
I0
I18
I6
I0
I0
I56
I34
I1
I0
I51
I29
I0
I2
I86
I57
I1
I0
I60
I41
I0
I0
I38
I19
I0
I0
I100
I62
I0
tp112
g7
s(I2
I108
I67
I1
I0
I107
I77
I0
I0
I244
I230
I0
I0
I22
I12
I0
I0
I185
I171
I0
I0
I131
I102
I0
I0
I28
I16
I0
I0
I27
I15
I0
I0
I15
I6
I0
I0
I24
I11
I0
I2
I165
I130
I1
I0
I18
I6
I0
I0
I56
I31
I1
I0
I51
I29
I0
I2
I86
I57
I1
I0
I58
I39
I0
I0
I38
I19
I0
I0
I129
I88
I0
tp113
g2
s(I2
I113
I72
I1
I0
I122
I81
I0
I0
I244
I230
I0
I0
I22
I12
I0
I0
I99
I64
I0
I0
I131
I102
I0
I0
I30
I16
I0
I0
I32
I17
I0
I0
I15
I6
I0
I0
I24
I11
I0
I2
I302
I263
I1
I0
I18
I6
I0
I0
I53
I32
I1
I0
I51
I29
I0
I2
I86
I57
I1
I0
I60
I41
I0
I0
I38
I18
I0
I0
I91
I53
I0
tp114
g2
s(I2
I133
I90
I1
I0
I101
I69
I0
I0
I284
I267
I0
I0
I22
I12
I0
I0
I97
I70
I0
I0
I131
I102
I0
I0
I25
I14
I0
I0
I27
I15
I0
I0
I15
I6
I0
I0
I24
I11
I0
I2
I188
I157
I1
I0
I18
I6
I0
I0
I56
I31
I1
I0
I51
I29
I0
I2
I86
I57
I1
I0
I63
I51
I0
I0
I38
I19
I0
I0
I97
I63
I0
tp115
g2
s(I2
I114
I76
I1
I0
I108
I76
I0
I0
I267
I251
I0
I0
I22
I12
I0
I0
I111
I93
I0
I0
I131
I102
I0
I0
I37
I20
I0
I0
I27
I15
I0
I0
I15
I6
I0
I0
I24
I11
I0
I2
I252
I214
I1
I0
I18
I6
I0
I0
I58
I34
I1
I0
I51
I29
I0
I2
I86
I57
I1
I0
I60
I41
I0
I0
I45
I24
I0
I0
I111
I68
I0
tp116
g4
s(I2
I116
I79
I1
I0
I109
I71
I0
I0
I244
I230
I0
I0
I22
I12
I0
I0
I129
I118
I0
I0
I131
I102
I0
I0
I25
I14
I0
I0
I27
I15
I0
I0
I15
I6
I0
I0
I24
I11
I0
I2
I218
I181
I1
I0
I18
I6
I0
I0
I50
I30
I1
I0
I51
I29
I0
I2
I86
I57
I1
I0
I60
I41
I0
I0
I38
I18
I0
I0
I92
I58
I0
tp117
g7
s(I2
I103
I64
I1
I0
I103
I71
I0
I0
I244
I230
I0
I0
I22
I12
I0
I0
I108
I73
I0
I0
I131
I102
I0
I0
I27
I16
I0
I0
I29
I17
I0
I0
I15
I6
I0
I0
I24
I11
I0
I2
I142
I110
I1
I0
I18
I6
I0
I0
I44
I23
I1
I0
I51
I29
I0
I2
I86
I57
I1
I0
I60
I41
I0
I0
I40
I21
I0
I0
I142
I108
I0
tp118
g2
s(I2
I103
I67
I1
I0
I107
I73
I0
I0
I244
I230
I0
I0
I22
I12
I0
I0
I37
I25
I0
I0
I131
I102
I0
I0
I39
I22
I0
I0
I29
I17
I0
I0
I15
I6
I0
I0
I24
I11
I0
I2
I121
I85
I1
I0
I18
I6
I0
I0
I44
I23
I1
I0
I51
I29
I0
I2
I86
I57
I1
I0
I44
I32
I0
I0
I40
I20
I0
I0
I96
I63
I0
tp119
g2
s(I2
I112
I74
I1
I0
I111
I78
I0
I0
I244
I230
I0
I0
I22
I12
I0
I0
I37
I25
I0
I0
I131
I102
I0
I0
I28
I15
I0
I0
I27
I13
I0
I0
I15
I6
I0
I0
I24
I11
I0
I2
I163
I129
I1
I0
I18
I6
I0
I0
I55
I34
I1
I0
I51
I29
I0
I2
I86
I57
I1
I0
I60
I41
I0
I0
I38
I19
I0
I0
I97
I61
I0
tp120
g2
s(I2
I154
I106
I1
I0
I107
I77
I0
I0
I244
I230
I0
I0
I22
I12
I0
I0
I179
I141
I0
I0
I131
I102
I0
I0
I41
I25
I0
I0
I29
I17
I0
I0
I15
I6
I0
I0
I24
I11
I0
I2
I325
I272
I1
I0
I18
I6
I0
I0
I47
I25
I1
I0
I51
I29
I0
I2
I86
I57
I1
I0
I60
I41
I0
I0
I40
I21
I0
I0
I79
I46
I0
tp121
g2
s(I2
I118
I80
I1
I0
I115
I80
I0
I0
I244
I230
I0
I0
I22
I12
I0
I0
I131
I90
I0
I0
I131
I102
I0
I0
I27
I16
I0
I0
I29
I17
I0
I0
I15
I6
I0
I0
I24
I11
I0
I2
I243
I204
I1
I0
I18
I6
I0
I0
I58
I33
I1
I0
I51
I29
I0
I2
I86
I57
I1
I0
I60
I41
I0
I0
I45
I24
I0
I0
I78
I50
I0
tp122
g4
s(I2
I115
I74
I1
I0
I104
I75
I0
I0
I244
I230
I0
I0
I22
I12
I0
I0
I143
I105
I0
I0
I131
I102
I0
I0
I32
I16
I0
I0
I34
I18
I0
I0
I15
I6
I0
I0
I24
I11
I0
I2
I163
I121
I1
I0
I18
I6
I0
I0
I55
I34
I1
I0
I51
I29
I0
I2
I86
I57
I1
I0
I63
I51
I0
I0
I41
I19
I0
I0
I94
I60
I0
tp123
g4
s(I2
I130
I89
I1
I0
I128
I92
I0
I0
I244
I230
I0
I0
I22
I12
I0
I0
I134
I98
I0
I0
I131
I102
I0
I0
I25
I14
I0
I0
I27
I15
I0
I0
I15
I6
I0
I0
I24
I11
I0
I2
I177
I140
I1
I0
I18
I6
I0
I0
I53
I32
I1
I0
I51
I29
I0
I2
I86
I57
I1
I0
I60
I41
I0
I0
I42
I21
I0
I0
I95
I61
I0
tp124
g4
s(I2
I134
I94
I1
I0
I112
I79
I0
I0
I244
I230
I0
I0
I22
I12
I0
I0
I114
I72
I0
I0
I131
I102
I0
I0
I25
I14
I0
I0
I27
I15
I0
I0
I15
I6
I0
I0
I24
I11
I0
I2
I168
I130
I1
I0
I18
I6
I0
I0
I64
I40
I1
I0
I51
I29
I0
I2
I86
I57
I1
I0
I60
I41
I0
I0
I38
I19
I0
I0
I82
I53
I0
tp125
g2
s(I2
I144
I104
I1
I0
I123
I87
I0
I0
I244
I230
I0
I0
I22
I12
I0
I0
I199
I184
I0
I0
I131
I102
I0
I0
I25
I14
I0
I0
I34
I20
I0
I0
I15
I6
I0
I0
I24
I11
I0
I2
I195
I162
I1
I0
I18
I6
I0
I0
I53
I32
I1
I0
I51
I29
I0
I2
I86
I57
I1
I0
I60
I41
I0
I0
I37
I19
I0
I0
I88
I59
I0
tp126
g4
s(I2
I136
I88
I1
I0
I132
I96
I0
I0
I244
I230
I0
I0
I22
I12
I0
I0
I131
I90
I0
I0
I131
I102
I0
I0
I29
I18
I0
I0
I31
I19
I0
I0
I15
I6
I0
I0
I24
I11
I0
I2
I192
I150
I1
I0
I18
I6
I0
I0
I60
I38
I1
I0
I51
I29
I0
I2
I86
I57
I1
I0
I60
I41
I0
I0
I42
I23
I0
I0
I102
I64
I0
tp127
g4
s(I2
I118
I78
I1
I0
I118
I80
I0
I0
I244
I230
I0
I0
I22
I12
I0
I0
I163
I118
I0
I0
I131
I102
I0
I0
I50
I28
I0
I0
I48
I26
I0
I0
I15
I6
I0
I0
I24
I11
I0
I2
I205
I168
I1
I0
I18
I6
I0
I0
I59
I36
I1
I0
I51
I29
I0
I2
I86
I57
I1
I0
I60
I41
I0
I0
I38
I19
I0
I0
I87
I58
I0
tp128
g4
s(I0
I152
I110
I2
I0
I104
I75
I0
I0
I244
I230
I0
I0
I22
I12
I0
I0
I129
I88
I0
I0
I131
I102
I0
I0
I30
I16
I0
I0
I32
I17
I0
I0
I15
I6
I0
I0
I24
I11
I0
I2
I213
I173
I1
I0
I18
I6
I0
I0
I53
I29
I1
I0
I51
I29
I0
I2
I86
I57
I1
I0
I60
I41
I0
I0
I38
I18
I0
I0
I88
I56
I0
tp129
g4
s(I2
I109
I74
I1
I0
I101
I69
I0
I0
I244
I230
I0
I0
I22
I12
I0
I0
I129
I118
I0
I0
I131
I102
I0
I0
I25
I14
I0
I0
I29
I17
I0
I0
I15
I6
I0
I0
I24
I11
I0
I2
I255
I214
I1
I0
I18
I6
I0
I0
I72
I43
I1
I0
I51
I29
I0
I2
I86
I57
I1
I0
I60
I41
I0
I0
I43
I23
I0
I0
I104
I70
I0
tp130
g2
s(I2
I109
I69
I1
I0
I112
I74
I0
I0
I244
I230
I0
I0
I22
I12
I0
I0
I129
I118
I0
I0
I131
I102
I0
I0
I25
I14
I0
I0
I27
I15
I0
I0
I15
I6
I0
I0
I24
I11
I0
I2
I268
I215
I1
I0
I18
I6
I0
I0
I62
I38
I1
I0
I51
I29
I0
I2
I86
I57
I1
I0
I60
I41
I0
I0
I38
I19
I0
I0
I81
I52
I0
tp131
g2
s(I2
I95
I57
I1
I0
I118
I83
I0
I0
I244
I230
I0
I0
I22
I12
I0
I0
I123
I88
I0
I0
I131
I102
I0
I0
I25
I14
I0
I0
I27
I15
I0
I0
I15
I6
I0
I0
I24
I11
I0
I2
I226
I185
I1
I0
I18
I6
I0
I0
I52
I31
I1
I0
I51
I29
I0
I2
I86
I57
I1
I0
I60
I41
I0
I0
I30
I17
I0
I0
I86
I52
I0
tp132
g7
s(I2
I121
I84
I1
I0
I118
I87
I0
I0
I244
I230
I0
I0
I22
I12
I0
I0
I138
I96
I0
I0
I131
I102
I0
I0
I25
I14
I0
I0
I27
I15
I0
I0
I15
I6
I0
I0
I24
I11
I0
I2
I191
I148
I1
I0
I18
I6
I0
I0
I50
I30
I1
I0
I51
I29
I0
I2
I86
I57
I1
I0
I60
I41
I0
I0
I38
I19
I0
I0
I97
I58
I0
tp133
g4
s(I2
I124
I83
I1
I0
I119
I79
I0
I0
I244
I230
I0
I0
I22
I12
I0
I0
I146
I97
I0
I0
I131
I102
I0
I0
I27
I15
I0
I0
I29
I15
I0
I0
I15
I6
I0
I0
I24
I11
I0
I2
I194
I146
I1
I0
I18
I6
I0
I0
I55
I34
I1
I0
I51
I29
I0
I2
I86
I57
I1
I0
I101
I89
I0
I0
I40
I21
I0
I0
I100
I71
I0
tp134
g4
s(I2
I116
I64
I3
I0
I110
I71
I0
I0
I244
I230
I0
I0
I22
I12
I0
I0
I135
I98
I0
I0
I131
I102
I0
I0
I30
I16
I0
I0
I34
I19
I0
I0
I15
I6
I0
I0
I24
I11
I0
I2
I190
I155
I1
I0
I18
I6
I0
I0
I54
I34
I1
I0
I51
I29
I0
I2
I86
I57
I1
I0
I60
I41
I0
I0
I44
I25
I0
I0
I110
I77
I0
tp135
g7
s(I2
I106
I73
I1
I0
I124
I77
I0
I0
I244
I230
I0
I0
I22
I12
I0
I0
I131
I120
I0
I0
I131
I102
I0
I0
I27
I16
I0
I0
I29
I17
I0
I0
I15
I6
I0
I0
I24
I11
I0
I2
I313
I282
I1
I0
I18
I6
I0
I0
I52
I32
I1
I0
I51
I29
I0
I2
I86
I57
I1
I0
I60
I41
I0
I0
I46
I26
I0
I0
I109
I71
I0
tp136
g4
s(I2
I111
I71
I1
I0
I104
I75
I0
I0
I244
I230
I0
I0
I22
I12
I0
I0
I144
I99
I0
I0
I131
I102
I0
I0
I25
I14
I0
I0
I27
I15
I0
I0
I15
I6
I0
I0
I24
I11
I0
I2
I134
I102
I1
I0
I18
I6
I0
I0
I56
I31
I1
I0
I51
I29
I0
I2
I86
I57
I1
I0
I58
I39
I0
I0
I54
I32
I0
I0
I93
I62
I0
tp137
g2
s(I2
I122
I86
I1
I0
I104
I72
I0
I0
I244
I230
I0
I0
I22
I12
I0
I0
I40
I28
I0
I0
I131
I102
I0
I0
I27
I16
I0
I0
I29
I17
I0
I0
I15
I6
I0
I0
I24
I11
I0
I2
I226
I196
I1
I0
I18
I6
I0
I0
I58
I36
I1
I0
I51
I29
I0
I2
I86
I57
I1
I0
I60
I41
I0
I0
I47
I24
I0
I0
I103
I68
I0
tp138
g4
s(I2
I110
I71
I1
I0
I102
I70
I0
I0
I244
I230
I0
I0
I22
I12
I0
I0
I105
I64
I0
I0
I131
I102
I0
I0
I42
I26
I0
I0
I32
I17
I0
I0
I15
I6
I0
I0
I24
I11
I0
I2
I243
I215
I1
I0
I18
I6
I0
I0
I58
I35
I1
I0
I51
I29
I0
I2
I86
I57
I1
I0
I44
I32
I0
I0
I38
I19
I0
I0
I129
I92
I0
tp139
g7
s(I2
I109
I69
I1
I0
I104
I75
I0
I0
I244
I230
I0
I0
I22
I12
I0
I0
I61
I46
I0
I0
I131
I102
I0
I0
I38
I25
I0
I0
I29
I17
I0
I0
I15
I6
I0
I0
I24
I11
I0
I2
I223
I182
I1
I0
I18
I6
I0
I0
I63
I41
I1
I0
I51
I29
I0
I2
I86
I57
I1
I0
I60
I41
I0
I0
I40
I21
I0
I0
I129
I93
I0
tp140
g4
s(I2
I158
I115
I1
I0
I131
I91
I0
I0
I244
I230
I0
I0
I22
I12
I0
I0
I146
I132
I0
I0
I131
I102
I0
I0
I27
I16
I0
I0
I29
I17
I0
I0
I15
I6
I0
I0
I24
I11
I0
I2
I184
I155
I1
I0
I18
I6
I0
I0
I55
I34
I1
I0
I51
I29
I0
I2
I86
I57
I1
I0
I42
I30
I0
I0
I40
I21
I0
I0
I100
I65
I0
tp141
g4
s(I2
I125
I84
I1
I0
I118
I77
I0
I0
I244
I230
I0
I0
I22
I12
I0
I0
I81
I68
I0
I0
I131
I102
I0
I0
I37
I19
I0
I0
I32
I17
I0
I0
I15
I6
I0
I0
I24
I11
I0
I2
I270
I231
I1
I0
I18
I6
I0
I0
I67
I41
I1
I0
I51
I29
I0
I2
I86
I57
I1
I0
I96
I77
I0
I0
I38
I19
I0
I0
I104
I58
I0
tp142
g7
s(I0
I200
I150
I2
I0
I124
I90
I0
I0
I244
I230
I0
I0
I22
I12
I0
I0
I161
I147
I0
I0
I131
I102
I0
I0
I25
I14
I0
I0
I27
I15
I0
I0
I15
I6
I0
I0
I24
I11
I0
I2
I281
I226
I1
I0
I18
I6
I0
I0
I74
I45
I1
I0
I51
I29
I0
I2
I86
I57
I1
I0
I60
I41
I0
I0
I38
I19
I0
I0
I173
I132
I0
tp143
g7
s(I2
I199
I147
I1
I0
I130
I83
I0
I0
I244
I230
I0
I0
I22
I12
I0
I0
I179
I166
I0
I0
I131
I102
I0
I0
I42
I24
I0
I0
I27
I15
I0
I0
I15
I6
I0
I0
I24
I11
I0
I2
I249
I220
I1
I0
I18
I6
I0
I0
I59
I36
I1
I0
I51
I29
I0
I2
I86
I57
I1
I0
I60
I41
I0
I0
I39
I20
I0
I0
I84
I57
I0
tp144
g7
s(I2
I105
I69
I1
I0
I109
I74
I0
I0
I244
I230
I0
I0
I22
I12
I0
I0
I129
I118
I0
I0
I131
I102
I0
I0
I25
I14
I0
I0
I27
I15
I0
I0
I15
I6
I0
I0
I24
I11
I0
I2
I233
I185
I1
I0
I18
I6
I0
I0
I48
I26
I1
I0
I53
I31
I0
I2
I86
I57
I1
I0
I101
I89
I0
I0
I174
I125
I0
I0
I101
I69
I0
tp145
g4
s(I2
I116
I77
I1
I0
I128
I92
I0
I0
I244
I230
I0
I0
I25
I13
I0
I0
I129
I88
I0
I0
I131
I102
I0
I0
I25
I13
I0
I0
I27
I13
I0
I0
I15
I6
I0
I0
I24
I11
I0
I2
I238
I197
I1
I0
I18
I6
I0
I0
I61
I40
I1
I0
I51
I29
I0
I2
I86
I57
I1
I0
I58
I39
I0
I0
I41
I20
I0
I0
I92
I59
I0
tp146
g4
s(I2
I115
I72
I1
I0
I106
I77
I0
I0
I244
I230
I0
I0
I22
I12
I0
I0
I130
I89
I0
I0
I131
I102
I0
I0
I27
I15
I0
I0
I29
I17
I0
I0
I15
I6
I0
I0
I24
I11
I0
I2
I184
I152
I1
I0
I18
I6
I0
I0
I52
I32
I1
I0
I51
I29
I0
I2
I86
I57
I1
I0
I60
I41
I0
I0
I40
I21
I0
I0
I88
I56
I0
tp147
g4
s(I2
I108
I72
I1
I0
I104
I75
I0
I0
I144
I132
I0
I0
I99
I64
I0
I0
I131
I102
I0
I0
I25
I14
I0
I0
I36
I23
I0
I0
I13
I5
I0
I0
I22
I10
I0
I2
I184
I146
I1
I0
I18
I6
I0
I0
I54
I33
I1
I0
I51
I29
I0
I2
I86
I57
I1
I0
I60
I41
I0
I0
I43
I21
I0
I0
I101
I67
I0
tp148
g7
s(I2
I119
I77
I1
I0
I159
I120
I0
I0
I244
I230
I0
I0
I22
I12
I0
I0
I187
I173
I0
I0
I131
I102
I0
I0
I27
I15
I0
I0
I29
I15
I0
I0
I15
I6
I0
I0
I24
I11
I0
I2
I197
I162
I1
I0
I18
I6
I0
I0
I63
I36
I1
I0
I51
I29
I0
I2
I86
I57
I1
I0
I60
I41
I0
I0
I40
I21
I0
I0
I82
I48
I0
tp149
g2
s(I2
I107
I70
I1
I0
I109
I75
I0
I0
I244
I230
I0
I0
I22
I12
I0
I0
I123
I88
I0
I0
I131
I102
I0
I0
I25
I14
I0
I0
I27
I15
I0
I0
I15
I6
I0
I0
I24
I11
I0
I2
I175
I142
I1
I0
I18
I6
I0
I0
I59
I36
I1
I0
I51
I29
I0
I2
I86
I57
I1
I0
I60
I41
I0
I0
I38
I19
I0
I0
I100
I65
I0
tp150
g4
s(I2
I111
I71
I1
I0
I101
I69
I0
I0
I244
I230
I0
I0
I22
I12
I0
I0
I143
I130
I0
I0
I131
I102
I0
I0
I25
I14
I0
I0
I27
I15
I0
I0
I15
I6
I0
I0
I24
I11
I0
I2
I257
I197
I1
I0
I18
I6
I0
I0
I63
I38
I1
I0
I51
I29
I0
I2
I86
I57
I1
I0
I60
I41
I0
I0
I42
I21
I0
I0
I67
I38
I0
tp151
g7
s(I2
I117
I76
I1
I0
I96
I62
I0
I0
I244
I230
I0
I0
I22
I12
I0
I0
I129
I118
I0
I0
I131
I102
I0
I0
I25
I13
I0
I0
I27
I13
I0
I0
I15
I6
I0
I0
I24
I11
I0
I2
I230
I177
I1
I0
I18
I6
I0
I0
I80
I50
I1
I0
I51
I29
I0
I2
I86
I57
I1
I0
I63
I51
I0
I0
I33
I16
I0
I0
I71
I42
I0
tp152
g2
s(I2
I111
I71
I1
I0
I101
I69
I0
I0
I244
I230
I0
I0
I22
I12
I0
I0
I134
I116
I0
I0
I131
I102
I0
I0
I30
I15
I0
I0
I32
I15
I0
I0
I15
I6
I0
I0
I24
I11
I0
I2
I222
I164
I1
I0
I18
I6
I0
I0
I62
I38
I1
I0
I51
I29
I0
I2
I86
I57
I1
I0
I60
I41
I0
I0
I38
I18
I0
I0
I92
I58
I0
tp153
g4
s(I2
I123
I85
I1
I0
I110
I79
I0
I0
I244
I230
I0
I0
I22
I12
I0
I0
I131
I120
I0
I0
I131
I102
I0
I0
I32
I18
I0
I0
I34
I19
I0
I0
I15
I6
I0
I0
I24
I11
I0
I2
I208
I181
I1
I0
I18
I6
I0
I0
I55
I34
I1
I0
I51
I29
I0
I2
I86
I57
I1
I0
I60
I41
I0
I0
I40
I20
I0
I0
I124
I91
I0
tp154
g4
s(I2
I103
I71
I1
I0
I147
I101
I0
I0
I244
I230
I0
I0
I22
I12
I0
I0
I105
I64
I0
I0
I131
I102
I0
I0
I27
I14
I0
I0
I29
I14
I0
I0
I15
I6
I0
I0
I24
I11
I0
I2
I216
I175
I1
I0
I18
I6
I0
I0
I53
I29
I1
I0
I51
I29
I0
I2
I86
I57
I1
I0
I60
I41
I0
I0
I38
I19
I0
I0
I102
I63
I0
tp155
g2
s(I2
I107
I69
I1
I0
I114
I73
I0
I0
I244
I230
I0
I0
I22
I12
I0
I0
I146
I132
I0
I0
I131
I102
I0
I0
I27
I15
I0
I0
I29
I15
I0
I0
I15
I6
I0
I0
I24
I11
I0
I2
I223
I172
I1
I0
I18
I6
I0
I0
I45
I24
I1
I0
I51
I29
I0
I2
I86
I57
I1
I0
I60
I41
I0
I0
I50
I24
I0
I0
I83
I49
I0
tp156
g4
s(I0
I137
I99
I2
I0
I128
I94
I0
I0
I244
I230
I0
I0
I22
I12
I0
I0
I137
I104
I0
I0
I131
I102
I0
I0
I37
I20
I0
I0
I32
I17
I0
I0
I15
I6
I0
I0
I24
I11
I0
I2
I173
I120
I1
I0
I18
I6
I0
I0
I57
I34
I1
I0
I51
I29
I0
I2
I86
I57
I1
I0
I60
I41
I0
I0
I40
I19
I0
I0
I75
I42
I0
tp157
g2
s(I2
I112
I73
I1
I0
I104
I75
I0
I0
I242
I228
I0
I0
I22
I12
I0
I0
I138
I96
I0
I0
I131
I102
I0
I0
I25
I13
I0
I0
I27
I13
I0
I0
I15
I6
I0
I0
I24
I11
I0
I2
I177
I135
I1
I0
I18
I6
I0
I0
I56
I31
I1
I0
I51
I29
I0
I2
I86
I57
I1
I0
I58
I39
I0
I0
I38
I18
I0
I0
I94
I60
I0
tp158
g2
s(I2
I106
I70
I1
I0
I104
I75
I0
I0
I244
I230
I0
I0
I22
I12
I0
I0
I144
I130
I0
I0
I131
I102
I0
I0
I39
I22
I0
I0
I39
I22
I0
I0
I15
I6
I0
I0
I24
I11
I0
I2
I203
I156
I1
I0
I18
I6
I0
I0
I53
I29
I1
I0
I51
I29
I0
I2
I86
I57
I1
I0
I60
I41
I0
I0
I45
I22
I0
I0
I93
I52
I0
tp159
g4
s(I2
I121
I82
I1
I0
I101
I69
I0
I0
I244
I230
I0
I0
I22
I12
I0
I0
I129
I88
I0
I0
I131
I102
I0
I0
I25
I13
I0
I0
I27
I13
I0
I0
I15
I6
I0
I0
I24
I11
I0
I2
I228
I166
I1
I0
I18
I6
I0
I0
I50
I30
I1
I0
I51
I29
I0
I2
I86
I57
I1
I0
I60
I41
I0
I0
I38
I18
I0
I0
I89
I64
I0
tp160
g4
s(I2
I113
I78
I1
I0
I116
I76
I0
I0
I244
I230
I0
I0
I22
I12
I0
I0
I120
I75
I0
I0
I131
I102
I0
I0
I49
I29
I0
I0
I36
I21
I0
I0
I15
I6
I0
I0
I24
I11
I0
I2
I102
I82
I1
I0
I18
I6
I0
I0
I55
I34
I1
I0
I51
I29
I0
I2
I86
I57
I1
I0
I82
I70
I0
I0
I45
I24
I0
I0
I101
I69
I0
tp161
g4
s(I2
I118
I81
I1
I0
I110
I79
I0
I0
I244
I230
I0
I0
I22
I12
I0
I0
I138
I114
I0
I0
I131
I102
I0
I0
I27
I16
I0
I0
I29
I17
I0
I0
I15
I6
I0
I0
I24
I11
I0
I2
I218
I177
I1
I0
I18
I6
I0
I0
I64
I40
I1
I0
I51
I29
I0
I2
I86
I57
I1
I0
I60
I41
I0
I0
I45
I24
I0
I0
I118
I76
I0
tp162
g4
s(I2
I147
I102
I1
I0
I146
I96
I0
I0
I244
I230
I0
I0
I22
I12
I0
I0
I168
I111
I0
I0
I131
I102
I0
I0
I28
I16
I0
I0
I27
I15
I0
I0
I15
I6
I0
I0
I24
I11
I0
I2
I263
I219
I1
I0
I18
I6
I0
I0
I62
I38
I1
I0
I51
I29
I0
I2
I86
I57
I1
I0
I60
I41
I0
I0
I38
I19
I0
I0
I79
I50
I0
tp163
g4
s(I2
I109
I72
I1
I0
I122
I79
I0
I0
I242
I228
I0
I0
I22
I12
I0
I0
I129
I118
I0
I0
I131
I102
I0
I0
I26
I14
I0
I0
I28
I16
I0
I0
I15
I6
I0
I0
I24
I11
I0
I2
I224
I195
I1
I0
I18
I6
I0
I0
I50
I30
I1
I0
I51
I29
I0
I2
I86
I57
I1
I0
I60
I41
I0
I0
I38
I18
I0
I0
I92
I61
I0
tp164
g4
s(I2
I113
I67
I1
I0
I102
I73
I0
I0
I244
I230
I0
I0
I22
I12
I0
I0
I129
I88
I0
I0
I131
I102
I0
I0
I25
I14
I0
I0
I27
I15
I0
I0
I15
I6
I0
I0
I24
I11
I0
I2
I210
I178
I1
I0
I18
I6
I0
I0
I62
I38
I1
I0
I51
I29
I0
I2
I86
I57
I1
I0
I60
I41
I0
I0
I38
I18
I0
I0
I74
I45
I0
tp165
g4
s(I2
I106
I69
I1
I0
I101
I69
I0
I0
I244
I230
I0
I0
I22
I12
I0
I0
I134
I121
I0
I0
I131
I102
I0
I0
I27
I16
I0
I0
I29
I17
I0
I0
I15
I6
I0
I0
I24
I11
I0
I2
I154
I121
I1
I0
I18
I6
I0
I0
I50
I30
I1
I0
I51
I29
I0
I2
I86
I57
I1
I0
I63
I51
I0
I0
I56
I34
I0
I0
I89
I58
I0
tp166
g4
s(I2
I114
I77
I1
I0
I159
I118
I0
I0
I244
I230
I0
I0
I22
I12
I0
I0
I129
I88
I0
I0
I131
I102
I0
I0
I30
I16
I0
I0
I32
I17
I0
I0
I15
I6
I0
I0
I24
I11
I0
I2
I220
I182
I1
I0
I18
I6
I0
I0
I57
I31
I1
I0
I51
I29
I0
I2
I86
I57
I1
I0
I60
I41
I0
I0
I45
I22
I0
I0
I108
I66
I0
tp167
g4
s(I2
I145
I94
I1
I0
I112
I75
I0
I0
I244
I230
I0
I0
I22
I12
I0
I0
I133
I92
I0
I0
I131
I102
I0
I0
I41
I25
I0
I0
I29
I17
I0
I0
I15
I6
I0
I0
I24
I11
I0
I2
I314
I259
I1
I0
I18
I6
I0
I0
I52
I28
I1
I0
I51
I29
I0
I2
I86
I57
I1
I0
I60
I41
I0
I0
I40
I21
I0
I0
I79
I46
I0
tp168
g4
s(I0
I168
I120
I2
I0
I113
I78
I0
I0
I244
I230
I0
I0
I22
I12
I0
I0
I138
I96
I0
I0
I131
I102
I0
I0
I30
I15
I0
I0
I32
I15
I0
I0
I15
I6
I0
I0
I24
I11
I0
I2
I192
I150
I1
I0
I18
I6
I0
I0
I58
I35
I1
I0
I51
I29
I0
I2
I86
I57
I1
I0
I60
I41
I0
I0
I54
I27
I0
I0
I86
I49
I0
tp169
g4
s(I2
I130
I90
I1
I0
I104
I75
I0
I0
I244
I230
I0
I0
I22
I12
I0
I0
I138
I96
I0
I0
I131
I102
I0
I0
I30
I15
I0
I0
I32
I15
I0
I0
I15
I6
I0
I0
I24
I11
I0
I2
I218
I177
I1
I0
I18
I6
I0
I0
I56
I31
I1
I0
I51
I29
I0
I2
I86
I57
I1
I0
I44
I32
I0
I0
I38
I18
I0
I0
I77
I49
I0
tp170
g4
s(I2
I108
I67
I1
I0
I121
I80
I0
I0
I244
I230
I0
I0
I22
I12
I0
I0
I152
I134
I0
I0
I131
I102
I0
I0
I27
I16
I0
I0
I29
I17
I0
I0
I15
I6
I0
I0
I24
I11
I0
I2
I213
I180
I1
I0
I18
I6
I0
I0
I52
I32
I1
I0
I51
I29
I0
I2
I86
I57
I1
I0
I101
I89
I0
I0
I40
I21
I0
I0
I180
I142
I0
tp171
g4
s(I2
I116
I79
I1
I0
I101
I69
I0
I0
I244
I230
I0
I0
I22
I12
I0
I0
I100
I81
I0
I0
I131
I102
I0
I0
I37
I21
I0
I0
I32
I17
I0
I0
I15
I6
I0
I0
I24
I11
I0
I2
I198
I161
I1
I0
I18
I6
I0
I0
I54
I32
I1
I0
I51
I29
I0
I2
I86
I57
I1
I0
I60
I41
I0
I0
I43
I22
I0
I0
I91
I57
I0
tp172
g4
s(I2
I125
I83
I1
I0
I130
I95
I0
I0
I244
I230
I0
I0
I22
I12
I0
I0
I187
I143
I0
I0
I131
I102
I0
I0
I30
I18
I0
I0
I32
I19
I0
I0
I15
I6
I0
I0
I24
I11
I0
I2
I251
I191
I1
I0
I18
I6
I0
I0
I62
I38
I1
I0
I51
I29
I0
I2
I86
I57
I1
I0
I60
I41
I0
I0
I40
I21
I0
I0
I84
I55
I0
tp173
g4
s(I2
I116
I79
I1
I0
I104
I75
I0
I0
I244
I230
I0
I0
I22
I12
I0
I0
I105
I64
I0
I0
I131
I102
I0
I0
I30
I16
I0
I0
I32
I17
I0
I0
I15
I6
I0
I0
I24
I11
I0
I2
I229
I173
I1
I0
I18
I6
I0
I0
I50
I30
I1
I0
I51
I29
I0
I2
I86
I57
I1
I0
I60
I41
I0
I0
I43
I22
I0
I0
I98
I66
I0
tp174
g4
s(I0
I248
I202
I4
I0
I132
I99
I0
I0
I244
I230
I0
I0
I22
I12
I0
I0
I129
I88
I0
I0
I131
I102
I0
I0
I36
I22
I0
I0
I27
I15
I0
I0
I15
I6
I0
I0
I24
I11
I0
I2
I200
I150
I1
I0
I18
I6
I0
I0
I58
I35
I1
I0
I51
I29
I0
I2
I86
I57
I1
I0
I60
I41
I0
I0
I38
I19
I0
I0
I101
I62
I0
tp175
g7
s(I2
I89
I60
I1
I0
I102
I70
I0
I0
I244
I230
I0
I0
I22
I12
I0
I0
I129
I88
I0
I0
I131
I102
I0
I0
I25
I14
I0
I0
I27
I15
I0
I0
I15
I6
I0
I0
I24
I11
I0
I2
I147
I112
I1
I0
I18
I6
I0
I0
I53
I32
I1
I0
I51
I29
I0
I2
I86
I57
I1
I0
I60
I41
I0
I0
I38
I19
I0
I0
I77
I44
I0
tp176
g4
s(I2
I112
I73
I1
I0
I101
I69
I0
I0
I244
I230
I0
I0
I22
I12
I0
I0
I185
I141
I0
I0
I131
I102
I0
I0
I25
I13
I0
I0
I27
I13
I0
I0
I15
I6
I0
I0
I24
I11
I0
I2
I180
I141
I1
I0
I18
I6
I0
I0
I53
I32
I1
I0
I51
I29
I0
I2
I86
I57
I1
I0
I60
I41
I0
I0
I42
I21
I0
I0
I83
I53
I0
tp177
g2
s(I2
I127
I86
I1
I0
I136
I102
I0
I0
I244
I230
I0
I0
I22
I12
I0
I0
I107
I96
I0
I0
I131
I102
I0
I0
I32
I17
I0
I0
I34
I17
I0
I0
I15
I6
I0
I0
I24
I11
I0
I2
I199
I165
I1
I0
I18
I6
I0
I0
I64
I40
I1
I0
I51
I29
I0
I2
I86
I57
I1
I0
I82
I70
I0
I0
I45
I23
I0
I0
I155
I114
I0
tp178
g4
s(I2
I121
I80
I1
I0
I107
I71
I0
I0
I244
I230
I0
I0
I22
I12
I0
I0
I129
I88
I0
I0
I131
I102
I0
I0
I25
I14
I0
I0
I27
I15
I0
I0
I15
I6
I0
I0
I24
I11
I0
I2
I159
I123
I1
I0
I18
I6
I0
I0
I53
I32
I1
I0
I51
I29
I0
I2
I86
I57
I1
I0
I60
I41
I0
I0
I38
I19
I0
I0
I88
I54
I0
tp179
g4
s(I2
I121
I82
I1
I0
I107
I76
I0
I0
I244
I230
I0
I0
I22
I12
I0
I0
I114
I72
I0
I0
I131
I102
I0
I0
I25
I14
I0
I0
I27
I15
I0
I0
I15
I6
I0
I0
I24
I11
I0
I2
I287
I226
I1
I0
I18
I6
I0
I0
I67
I42
I1
I0
I51
I29
I0
I2
I86
I57
I1
I0
I60
I41
I0
I0
I38
I19
I0
I0
I128
I94
I0
tp180
g7
s(I2
I138
I98
I1
I0
I104
I75
I0
I0
I244
I230
I0
I0
I22
I12
I0
I0
I129
I88
I0
I0
I131
I102
I0
I0
I25
I14
I0
I0
I27
I15
I0
I0
I15
I6
I0
I0
I24
I11
I0
I2
I190
I158
I1
I0
I18
I6
I0
I0
I62
I38
I1
I0
I51
I29
I0
I2
I86
I57
I1
I0
I60
I41
I0
I0
I38
I19
I0
I0
I102
I66
I0
tp181
g4
s(I2
I137
I89
I1
I0
I124
I84
I0
I0
I244
I230
I0
I0
I22
I12
I0
I0
I38
I26
I0
I0
I131
I102
I0
I0
I32
I18
I0
I0
I27
I15
I0
I0
I15
I6
I0
I0
I24
I11
I0
I2
I220
I186
I1
I0
I18
I6
I0
I0
I64
I39
I1
I0
I51
I29
I0
I2
I86
I57
I1
I0
I60
I41
I0
I0
I45
I24
I0
I0
I119
I82
I0
tp182
g4
s(I2
I106
I67
I1
I0
I103
I71
I0
I0
I244
I230
I0
I0
I22
I12
I0
I0
I142
I101
I0
I0
I131
I102
I0
I0
I27
I16
I0
I0
I42
I24
I0
I0
I15
I6
I0
I0
I24
I11
I0
I2
I236
I198
I1
I0
I18
I6
I0
I0
I48
I25
I1
I0
I51
I29
I0
I2
I86
I57
I1
I0
I60
I41
I0
I0
I43
I21
I0
I0
I98
I61
I0
tp183
g4
s(I2
I123
I82
I1
I0
I111
I78
I0
I0
I244
I230
I0
I0
I22
I12
I0
I0
I148
I97
I0
I0
I131
I102
I0
I0
I25
I14
I0
I0
I27
I15
I0
I0
I15
I6
I0
I0
I24
I11
I0
I2
I282
I233
I1
I0
I18
I6
I0
I0
I53
I32
I1
I0
I51
I29
I0
I2
I86
I57
I1
I0
I60
I41
I0
I0
I41
I20
I0
I0
I76
I46
I0
tp184
g4
s(I2
I128
I90
I1
I0
I102
I69
I0
I0
I244
I230
I0
I0
I22
I12
I0
I0
I126
I105
I0
I0
I131
I102
I0
I0
I25
I14
I0
I0
I27
I15
I0
I0
I15
I6
I0
I0
I24
I11
I0
I2
I177
I140
I1
I0
I18
I6
I0
I0
I62
I38
I1
I0
I51
I29
I0
I2
I86
I57
I1
I0
I60
I41
I0
I0
I38
I19
I0
I0
I125
I92
I0
tp185
g4
s(I2
I113
I74
I1
I0
I124
I81
I0
I0
I244
I230
I0
I0
I22
I12
I0
I0
I107
I66
I0
I0
I131
I102
I0
I0
I27
I16
I0
I0
I29
I17
I0
I0
I15
I6
I0
I0
I24
I11
I0
I2
I167
I127
I1
I0
I18
I6
I0
I0
I66
I41
I1
I0
I51
I29
I0
I2
I86
I57
I1
I0
I79
I60
I0
I0
I48
I28
I0
I0
I113
I77
I0
tp186
g4
s(I2
I118
I81
I1
I0
I136
I95
I0
I0
I244
I230
I0
I0
I22
I12
I0
I0
I101
I66
I0
I0
I131
I102
I0
I0
I25
I14
I0
I0
I27
I15
I0
I0
I15
I6
I0
I0
I24
I11
I0
I2
I181
I137
I1
I0
I18
I6
I0
I0
I54
I33
I1
I0
I51
I29
I0
I2
I86
I57
I1
I0
I60
I41
I0
I0
I44
I23
I0
I0
I103
I69
I0
tp187
g4
s(I2
I116
I78
I1
I0
I113
I78
I0
I0
I244
I230
I0
I0
I22
I12
I0
I0
I187
I143
I0
I0
I131
I102
I0
I0
I37
I23
I0
I0
I34
I17
I0
I0
I15
I6
I0
I0
I24
I11
I0
I2
I191
I151
I1
I0
I18
I6
I0
I0
I52
I32
I1
I0
I51
I29
I0
I2
I86
I57
I1
I0
I44
I32
I0
I0
I40
I20
I0
I0
I76
I48
I0
tp188
g2
s(I2
I158
I110
I1
I0
I92
I60
I0
I0
I311
I297
I0
I0
I22
I12
I0
I0
I106
I71
I0
I0
I131
I102
I0
I0
I30
I15
I0
I0
I32
I15
I0
I0
I15
I6
I0
I0
I24
I11
I0
I2
I195
I160
I1
I0
I18
I6
I0
I0
I54
I28
I1
I0
I51
I29
I0
I2
I86
I57
I1
I0
I60
I41
I0
I0
I38
I19
I0
I0
I86
I54
I0
tp189
g4
s(I2
I116
I79
I1
I0
I108
I73
I0
I0
I244
I230
I0
I0
I22
I12
I0
I0
I100
I79
I0
I0
I131
I102
I0
I0
I27
I15
I0
I0
I29
I17
I0
I0
I15
I6
I0
I0
I24
I11
I0
I2
I165
I114
I1
I0
I18
I6
I0
I0
I55
I34
I1
I0
I53
I31
I0
I2
I86
I57
I1
I0
I60
I41
I0
I0
I40
I20
I0
I0
I96
I62
I0
tp190
g4
s(I2
I114
I73
I1
I0
I108
I77
I0
I0
I244
I230
I0
I0
I22
I12
I0
I0
I173
I140
I0
I0
I131
I102
I0
I0
I25
I14
I0
I0
I27
I15
I0
I0
I15
I6
I0
I0
I24
I11
I0
I2
I193
I149
I1
I0
I18
I6
I0
I0
I58
I34
I1
I0
I51
I29
I0
I2
I86
I57
I1
I0
I60
I41
I0
I0
I38
I19
I0
I0
I87
I58
I0
tp191
g4
s(I2
I112
I72
I1
I0
I111
I79
I0
I0
I244
I230
I0
I0
I22
I12
I0
I0
I133
I115
I0
I0
I131
I102
I0
I0
I28
I15
I0
I0
I27
I13
I0
I0
I15
I6
I0
I0
I24
I11
I0
I2
I187
I138
I1
I0
I18
I6
I0
I0
I59
I36
I1
I0
I51
I29
I0
I2
I86
I57
I1
I0
I60
I41
I0
I0
I38
I18
I0
I0
I91
I53
I0
tp192
g4
s(I2
I94
I61
I1
I0
I102
I70
I0
I0
I244
I230
I0
I0
I22
I12
I0
I0
I139
I124
I0
I0
I131
I102
I0
I0
I25
I14
I0
I0
I27
I15
I0
I0
I15
I6
I0
I0
I24
I11
I0
I2
I198
I170
I1
I0
I18
I6
I0
I0
I44
I23
I1
I0
I51
I29
I0
I2
I86
I57
I1
I0
I60
I41
I0
I0
I43
I22
I0
I0
I96
I66
I0
tp193
g2
s(I2
I98
I60
I1
I0
I104
I70
I0
I0
I244
I230
I0
I0
I25
I13
I0
I0
I154
I135
I0
I0
I131
I102
I0
I0
I25
I14
I0
I0
I27
I15
I0
I0
I15
I6
I0
I0
I24
I11
I0
I2
I163
I130
I1
I0
I18
I6
I0
I0
I47
I25
I1
I0
I51
I29
I0
I2
I86
I57
I1
I0
I60
I41
I0
I0
I43
I22
I0
I0
I58
I29
I0
tp194
g2
s(I2
I123
I84
I1
I0
I90
I63
I0
I0
I244
I230
I0
I0
I22
I12
I0
I0
I125
I90
I0
I0
I131
I102
I0
I0
I27
I15
I0
I0
I29
I15
I0
I0
I15
I6
I0
I0
I24
I11
I0
I2
I187
I155
I1
I0
I18
I6
I0
I0
I58
I36
I1
I0
I51
I29
I0
I2
I86
I57
I1
I0
I60
I41
I0
I0
I40
I20
I0
I0
I77
I41
I0
tp195
g2
s(I2
I98
I65
I1
I0
I128
I87
I0
I0
I244
I230
I0
I0
I22
I12
I0
I0
I157
I144
I0
I0
I131
I102
I0
I0
I27
I16
I0
I0
I29
I17
I0
I0
I15
I6
I0
I0
I24
I11
I0
I2
I211
I162
I1
I0
I18
I6
I0
I0
I48
I25
I1
I0
I51
I29
I0
I2
I86
I57
I1
I0
I82
I70
I0
I0
I45
I23
I0
I0
I71
I40
I0
tp196
g4
s(I2
I97
I64
I1
I0
I103
I71
I0
I0
I244
I230
I0
I0
I22
I12
I0
I0
I131
I120
I0
I0
I131
I102
I0
I0
I27
I16
I0
I0
I29
I17
I0
I0
I15
I6
I0
I0
I24
I11
I0
I2
I207
I163
I1
I0
I18
I6
I0
I0
I55
I34
I1
I0
I51
I29
I0
I2
I86
I57
I1
I0
I60
I41
I0
I0
I40
I21
I0
I0
I87
I57
I0
tp197
g2
s(I0
I128
I82
I2
I0
I127
I87
I0
I0
I244
I230
I0
I0
I22
I12
I0
I0
I150
I105
I0
I0
I131
I102
I0
I0
I25
I14
I0
I0
I27
I15
I0
I0
I15
I6
I0
I0
I24
I11
I0
I2
I175
I140
I1
I0
I18
I6
I0
I0
I53
I32
I1
I0
I51
I29
I0
I2
I86
I57
I1
I0
I60
I41
I0
I0
I38
I19
I0
I0
I88
I60
I0
tp198
g7
s(I0
I165
I120
I2
I0
I109
I80
I0
I0
I244
I230
I0
I0
I22
I12
I0
I0
I120
I71
I0
I0
I131
I102
I0
I0
I25
I14
I0
I0
I27
I15
I0
I0
I15
I6
I0
I0
I24
I11
I0
I2
I230
I176
I1
I0
I18
I6
I0
I0
I61
I36
I1
I0
I51
I29
I0
I2
I86
I57
I1
I0
I63
I51
I0
I0
I42
I21
I0
I0
I102
I63
I0
tp199
g7
s(I2
I126
I86
I1
I0
I110
I79
I0
I0
I244
I230
I0
I0
I22
I12
I0
I0
I131
I90
I0
I0
I131
I102
I0
I0
I27
I16
I0
I0
I29
I17
I0
I0
I15
I6
I0
I0
I24
I11
I0
I2
I191
I163
I1
I0
I18
I6
I0
I0
I64
I40
I1
I0
I51
I29
I0
I2
I86
I57
I1
I0
I60
I41
I0
I0
I36
I18
I0
I0
I47
I28
I0
tp200
g2
s(I2
I111
I74
I1
I0
I105
I71
I0
I0
I286
I272
I0
I0
I22
I12
I0
I0
I142
I98
I0
I0
I131
I102
I0
I0
I25
I14
I0
I0
I27
I15
I0
I0
I15
I6
I0
I0
I24
I11
I0
I2
I219
I188
I1
I0
I18
I6
I0
I0
I53
I29
I1
I0
I51
I29
I0
I2
I86
I57
I1
I0
I60
I41
I0
I0
I46
I23
I0
I0
I67
I38
I0
tp201
g4
s(I2
I114
I77
I1
I0
I101
I69
I0
I0
I244
I230
I0
I0
I22
I12
I0
I0
I179
I166
I0
I0
I131
I102
I0
I0
I25
I14
I0
I0
I27
I15
I0
I0
I15
I6
I0
I0
I24
I11
I0
I2
I200
I158
I1
I0
I18
I6
I0
I0
I53
I32
I1
I0
I51
I29
I0
I2
I86
I57
I1
I0
I60
I41
I0
I0
I38
I19
I0
I0
I93
I54
I0
tp202
g4
s(I2
I109
I72
I1
I0
I101
I69
I0
I0
I244
I230
I0
I0
I22
I12
I0
I0
I116
I92
I0
I0
I131
I102
I0
I0
I25
I13
I0
I0
I27
I13
I0
I0
I15
I6
I0
I0
I24
I11
I0
I2
I259
I225
I1
I0
I18
I6
I0
I0
I58
I34
I1
I0
I51
I29
I0
I2
I86
I57
I1
I0
I60
I41
I0
I0
I40
I20
I0
I0
I73
I45
I0
tp203
g4
s(I2
I159
I116
I1
I0
I166
I112
I0
I0
I244
I230
I0
I0
I22
I12
I0
I0
I130
I92
I0
I0
I131
I102
I0
I0
I25
I14
I0
I0
I27
I15
I0
I0
I15
I6
I0
I0
I24
I11
I0
I2
I284
I241
I1
I0
I18
I6
I0
I0
I56
I34
I1
I0
I51
I29
I0
I2
I86
I57
I1
I0
I60
I41
I0
I0
I41
I20
I0
I0
I101
I73
I0
tp204
g7
s(I0
I170
I119
I2
I0
I151
I113
I0
I0
I144
I132
I0
I0
I22
I12
I0
I0
I131
I90
I0
I0
I131
I102
I0
I0
I32
I18
I0
I0
I29
I17
I0
I0
I15
I6
I0
I0
I24
I11
I0
I2
I382
I345
I1
I0
I18
I6
I0
I0
I66
I39
I1
I0
I51
I29
I0
I2
I86
I57
I1
I0
I60
I41
I0
I0
I45
I24
I0
I0
I128
I86
I0
tp205
g7
s(I2
I96
I59
I1
I0
I111
I82
I0
I0
I244
I230
I0
I0
I22
I12
I0
I0
I150
I132
I0
I0
I131
I102
I0
I0
I30
I16
I0
I0
I27
I15
I0
I0
I15
I6
I0
I0
I24
I11
I0
I2
I162
I130
I1
I0
I18
I6
I0
I0
I45
I22
I1
I0
I51
I29
I0
I2
I86
I57
I1
I0
I60
I41
I0
I0
I38
I19
I0
I0
I117
I85
I0
tp206
g4
s(I2
I123
I82
I1
I0
I146
I104
I0
I0
I244
I230
I0
I0
I22
I12
I0
I0
I159
I146
I0
I0
I131
I102
I0
I0
I25
I14
I0
I0
I27
I15
I0
I0
I15
I6
I0
I0
I24
I11
I0
I2
I263
I206
I1
I0
I18
I6
I0
I0
I50
I30
I1
I0
I51
I29
I0
I2
I86
I57
I1
I0
I60
I41
I0
I0
I38
I19
I0
I0
I78
I46
I0
tp207
g4
s(I2
I121
I83
I1
I0
I108
I77
I0
I0
I244
I230
I0
I0
I22
I12
I0
I0
I144
I105
I0
I0
I131
I102
I0
I0
I25
I13
I0
I0
I27
I13
I0
I0
I15
I6
I0
I0
I24
I11
I0
I2
I155
I124
I1
I0
I18
I6
I0
I0
I50
I30
I1
I0
I51
I29
I0
I2
I86
I57
I1
I0
I63
I51
I0
I0
I42
I21
I0
I0
I75
I48
I0
tp208
g2
s(I2
I108
I68
I1
I0
I105
I71
I0
I0
I244
I230
I0
I0
I22
I12
I0
I0
I134
I115
I0
I0
I131
I102
I0
I0
I25
I13
I0
I0
I27
I13
I0
I0
I15
I6
I0
I0
I24
I11
I0
I2
I142
I113
I1
I0
I18
I6
I0
I0
I50
I30
I1
I0
I51
I29
I0
I2
I86
I57
I1
I0
I60
I41
I0
I0
I38
I18
I0
I0
I75
I49
I0
tp209
g4
s(I0
I168
I126
I2
I0
I133
I95
I0
I0
I244
I230
I0
I0
I22
I12
I0
I0
I147
I129
I0
I0
I131
I102
I0
I0
I25
I14
I0
I0
I27
I15
I0
I0
I15
I6
I0
I0
I24
I11
I0
I2
I184
I148
I1
I0
I18
I6
I0
I0
I56
I31
I1
I0
I51
I29
I0
I2
I86
I57
I1
I0
I60
I41
I0
I0
I38
I19
I0
I0
I73
I41
I0
tp210
g4
s(I2
I129
I88
I1
I0
I106
I72
I0
I0
I244
I230
I0
I0
I22
I12
I0
I0
I179
I141
I0
I0
I131
I102
I0
I0
I25
I14
I0
I0
I40
I22
I0
I0
I15
I6
I0
I0
I24
I11
I0
I2
I191
I149
I1
I0
I18
I6
I0
I0
I53
I29
I1
I0
I51
I29
I0
I2
I86
I57
I1
I0
I60
I41
I0
I0
I38
I19
I0
I0
I95
I56
I0
tp211
g4
s(I2
I109
I69
I1
I0
I108
I77
I0
I0
I244
I230
I0
I0
I22
I12
I0
I0
I129
I118
I0
I0
I131
I102
I0
I0
I25
I14
I0
I0
I27
I15
I0
I0
I15
I6
I0
I0
I24
I11
I0
I2
I268
I215
I1
I0
I18
I6
I0
I0
I53
I32
I1
I0
I51
I29
I0
I2
I86
I57
I1
I0
I60
I41
I0
I0
I38
I19
I0
I0
I73
I41
I0
tp212
g2
s(I2
I108
I67
I1
I0
I110
I79
I0
I0
I244
I230
I0
I0
I22
I12
I0
I0
I129
I118
I0
I0
I131
I102
I0
I0
I26
I15
I0
I0
I28
I16
I0
I0
I15
I6
I0
I0
I24
I11
I0
I2
I203
I171
I1
I0
I18
I6
I0
I0
I61
I39
I1
I0
I51
I29
I0
I2
I86
I57
I1
I0
I63
I51
I0
I0
I38
I19
I0
I0
I99
I60
I0
tp213
g4
s(I2
I115
I75
I1
I0
I104
I73
I0
I0
I244
I230
I0
I0
I22
I12
I0
I0
I199
I151
I0
I0
I131
I102
I0
I0
I51
I34
I0
I0
I32
I17
I0
I0
I15
I6
I0
I0
I24
I11
I0
I2
I256
I218
I1
I0
I18
I6
I0
I0
I58
I34
I1
I0
I51
I29
I0
I2
I86
I57
I1
I0
I60
I41
I0
I0
I45
I22
I0
I0
I123
I87
I0
tp214
g7
s(I0
I133
I96
I2
I0
I128
I93
I0
I0
I264
I250
I0
I0
I22
I12
I0
I0
I144
I95
I0
I0
I131
I102
I0
I0
I33
I17
I0
I0
I42
I24
I0
I0
I15
I6
I0
I0
I24
I11
I0
I2
I187
I155
I1
I0
I18
I6
I0
I0
I61
I38
I1
I0
I51
I29
I0
I2
I86
I57
I1
I0
I60
I41
I0
I0
I38
I19
I0
I0
I113
I75
I0
tp215
g4
s(I2
I118
I79
I1
I0
I110
I76
I0
I0
I244
I230
I0
I0
I22
I12
I0
I0
I206
I159
I0
I0
I131
I102
I0
I0
I25
I14
I0
I0
I27
I15
I0
I0
I15
I6
I0
I0
I24
I11
I0
I2
I118
I89
I1
I0
I18
I6
I0
I0
I59
I36
I1
I0
I51
I29
I0
I2
I86
I57
I1
I0
I63
I51
I0
I0
I38
I18
I0
I0
I101
I59
I0
tp216
g2
s(I2
I115
I77
I1
I0
I127
I88
I0
I0
I244
I230
I0
I0
I22
I12
I0
I0
I129
I118
I0
I0
I131
I102
I0
I0
I25
I14
I0
I0
I27
I15
I0
I0
I15
I6
I0
I0
I24
I11
I0
I2
I204
I167
I1
I0
I18
I6
I0
I0
I56
I34
I1
I0
I51
I29
I0
I2
I86
I57
I1
I0
I60
I41
I0
I0
I38
I19
I0
I0
I114
I68
I0
tp217
g4
s(I2
I141
I97
I1
I0
I101
I69
I0
I0
I244
I230
I0
I0
I22
I12
I0
I0
I131
I102
I0
I0
I199
I184
I0
I0
I25
I14
I0
I0
I34
I20
I0
I0
I15
I6
I0
I0
I24
I11
I0
I2
I209
I173
I1
I0
I18
I6
I0
I0
I53
I32
I1
I0
I51
I29
I0
I2
I86
I57
I1
I0
I60
I41
I0
I0
I38
I19
I0
I0
I185
I144
I0
tp218
g4
s(I2
I102
I67
I1
I0
I132
I89
I0
I0
I244
I230
I0
I0
I22
I12
I0
I0
I71
I58
I0
I0
I131
I102
I0
I0
I25
I14
I0
I0
I27
I15
I0
I0
I15
I6
I0
I0
I24
I11
I0
I2
I195
I146
I1
I0
I18
I6
I0
I0
I60
I35
I1
I0
I51
I29
I0
I2
I86
I57
I1
I0
I60
I41
I0
I0
I28
I15
I0
I0
I56
I42
I0
tp219
g4
s(I2
I113
I75
I1
I0
I108
I77
I0
I0
I244
I230
I0
I0
I22
I12
I0
I0
I129
I118
I0
I0
I131
I102
I0
I0
I25
I14
I0
I0
I27
I15
I0
I0
I15
I6
I0
I0
I24
I11
I0
I2
I189
I157
I1
I0
I18
I6
I0
I0
I58
I33
I1
I0
I51
I29
I0
I2
I86
I57
I1
I0
I60
I41
I0
I0
I38
I19
I0
I0
I80
I43
I0
tp220
g2
s(I2
I110
I73
I1
I0
I94
I67
I0
I0
I244
I230
I0
I0
I22
I12
I0
I0
I116
I93
I0
I0
I131
I102
I0
I0
I29
I15
I0
I0
I24
I12
I0
I0
I15
I6
I0
I0
I24
I11
I0
I2
I198
I163
I1
I0
I18
I6
I0
I0
I62
I38
I1
I0
I51
I29
I0
I2
I86
I57
I1
I0
I60
I41
I0
I0
I44
I23
I0
I0
I73
I48
I0
tp221
g4
s(I2
I104
I67
I1
I0
I87
I61
I0
I0
I244
I230
I0
I0
I22
I12
I0
I0
I99
I81
I0
I0
I131
I102
I0
I0
I20
I11
I0
I0
I22
I12
I0
I0
I15
I6
I0
I0
I24
I11
I0
I2
I204
I137
I1
I0
I18
I6
I0
I0
I56
I31
I1
I0
I51
I29
I0
I2
I86
I57
I1
I0
I122
I88
I1
I0
I38
I19
I0
I0
I64
I35
I0
tp222
g2
s(I3
I127
I77
I3
I2
I160
I107
I1
I0
I244
I230
I0
I0
I22
I12
I0
I0
I133
I91
I0
I0
I131
I102
I0
I0
I43
I23
I0
I0
I34
I19
I0
I0
I15
I6
I0
I0
I24
I11
I0
I2
I227
I192
I1
I0
I18
I6
I0
I0
I55
I31
I1
I0
I51
I29
I0
I2
I86
I57
I1
I0
I60
I41
I0
I0
I26
I14
I0
I0
I17
I9
I0
tp223
g7
s(I2
I112
I74
I1
I0
I114
I82
I0
I0
I244
I230
I0
I0
I22
I12
I0
I0
I163
I149
I0
I0
I131
I102
I0
I0
I37
I24
I0
I0
I34
I19
I0
I0
I15
I6
I0
I0
I24
I11
I0
I2
I232
I187
I1
I0
I18
I6
I0
I0
I52
I32
I1
I0
I53
I31
I0
I2
I86
I57
I1
I0
I63
I51
I0
I0
I40
I21
I0
I0
I73
I44
I0
tp224
g4
s(I2
I123
I83
I1
I0
I104
I75
I0
I0
I244
I230
I0
I0
I22
I12
I0
I0
I198
I151
I0
I0
I131
I102
I0
I0
I25
I14
I0
I0
I27
I15
I0
I0
I15
I6
I0
I0
I24
I11
I0
I2
I210
I175
I1
I0
I18
I6
I0
I0
I62
I38
I1
I0
I51
I29
I0
I2
I86
I57
I1
I0
I60
I41
I0
I0
I38
I19
I0
I0
I95
I60
I0
tp225
g4
s(I2
I131
I88
I1
I0
I104
I75
I0
I0
I244
I230
I0
I0
I22
I12
I0
I0
I129
I118
I0
I0
I131
I102
I0
I0
I25
I13
I0
I0
I27
I13
I0
I0
I15
I6
I0
I0
I24
I11
I0
I2
I253
I212
I1
I0
I18
I6
I0
I0
I61
I38
I1
I0
I51
I29
I0
I2
I86
I57
I1
I0
I60
I41
I0
I0
I38
I19
I0
I0
I97
I63
I0
tp226
g2
s(I2
I116
I75
I1
I0
I128
I87
I0
I0
I244
I230
I0
I0
I22
I12
I0
I0
I81
I68
I0
I0
I131
I102
I0
I0
I25
I13
I0
I0
I27
I13
I0
I0
I24
I11
I0
I0
I15
I6
I0
I2
I216
I158
I1
I0
I18
I6
I0
I0
I56
I31
I1
I0
I51
I29
I0
I2
I86
I57
I1
I0
I101
I89
I0
I0
I40
I20
I0
I0
I119
I81
I0
tp227
g2
s(I2
I131
I87
I1
I0
I105
I71
I0
I0
I244
I230
I0
I0
I22
I12
I0
I0
I91
I73
I0
I0
I131
I102
I0
I0
I30
I16
I0
I0
I32
I17
I0
I0
I15
I6
I0
I0
I24
I11
I0
I2
I218
I159
I1
I0
I18
I6
I0
I0
I58
I33
I1
I0
I51
I29
I0
I2
I86
I57
I1
I0
I60
I41
I0
I0
I38
I19
I0
I0
I108
I70
I0
tp228
g4
s(I2
I118
I79
I1
I0
I123
I87
I0
I0
I244
I230
I0
I0
I22
I12
I0
I0
I146
I96
I0
I0
I131
I102
I0
I0
I32
I18
I0
I0
I34
I20
I0
I0
I15
I6
I0
I0
I24
I11
I0
I2
I209
I146
I1
I0
I18
I6
I0
I0
I53
I32
I1
I0
I51
I29
I0
I2
I86
I57
I1
I0
I58
I39
I0
I0
I43
I22
I0
I0
I83
I51
I0
tp229
g7
s(I2
I108
I70
I1
I0
I113
I81
I0
I0
I244
I230
I0
I0
I22
I12
I0
I0
I133
I92
I0
I0
I131
I102
I0
I0
I27
I15
I0
I0
I29
I15
I0
I0
I15
I6
I0
I0
I24
I11
I0
I2
I215
I178
I1
I0
I18
I6
I0
I0
I57
I36
I1
I0
I51
I29
I0
I2
I86
I57
I1
I0
I60
I41
I0
I0
I40
I21
I0
I0
I99
I63
I0
tp230
g4
s(I2
I100
I59
I1
I0
I127
I84
I0
I0
I244
I230
I0
I0
I22
I12
I0
I0
I108
I91
I0
I0
I131
I102
I0
I0
I27
I15
I0
I0
I29
I15
I0
I0
I15
I6
I0
I0
I24
I11
I0
I2
I167
I137
I1
I0
I18
I6
I0
I0
I51
I25
I1
I0
I51
I29
I0
I2
I86
I57
I1
I0
I60
I41
I0
I0
I40
I21
I0
I0
I82
I51
I0
tp231
g2
s(I2
I117
I78
I1
I0
I104
I71
I0
I0
I244
I230
I0
I0
I22
I12
I0
I0
I70
I51
I0
I0
I131
I102
I0
I0
I27
I16
I0
I0
I29
I17
I0
I0
I15
I6
I0
I0
I24
I11
I0
I2
I187
I150
I1
I0
I18
I6
I0
I0
I55
I34
I1
I0
I51
I29
I0
I2
I86
I57
I1
I0
I60
I41
I0
I0
I48
I25
I0
I0
I117
I84
I0
tp232
g4
s(I0
I153
I110
I2
I0
I224
I153
I2
I0
I244
I230
I0
I0
I22
I12
I0
I0
I179
I141
I0
I0
I131
I102
I0
I0
I30
I16
I0
I0
I32
I17
I0
I0
I15
I6
I0
I0
I24
I11
I0
I2
I219
I182
I1
I0
I18
I6
I0
I0
I58
I35
I1
I0
I51
I29
I0
I2
I86
I57
I1
I0
I60
I41
I0
I0
I38
I19
I0
I0
I95
I60
I0
tp233
g4
s(I2
I115
I75
I1
I0
I101
I69
I0
I0
I244
I230
I0
I0
I22
I12
I0
I0
I131
I90
I0
I0
I131
I102
I0
I0
I25
I13
I0
I0
I27
I13
I0
I0
I15
I6
I0
I0
I24
I11
I0
I2
I244
I176
I1
I0
I18
I6
I0
I0
I58
I36
I1
I0
I51
I29
I0
I2
I86
I57
I1
I0
I60
I41
I0
I0
I38
I19
I0
I0
I78
I48
I0
tp234
g4
s(I2
I121
I79
I1
I0
I104
I72
I0
I0
I244
I230
I0
I0
I22
I12
I0
I0
I181
I143
I0
I0
I131
I102
I0
I0
I27
I16
I0
I0
I29
I17
I0
I0
I15
I6
I0
I0
I24
I11
I0
I2
I196
I157
I1
I0
I18
I6
I0
I0
I64
I40
I1
I0
I51
I29
I0
I2
I86
I57
I1
I0
I60
I41
I0
I0
I56
I34
I0
I0
I103
I72
I0
tp235
g7
s(I2
I126
I79
I1
I0
I145
I102
I0
I0
I244
I230
I0
I0
I22
I12
I0
I0
I46
I32
I0
I0
I131
I102
I0
I0
I61
I40
I0
I0
I34
I19
I0
I0
I15
I6
I0
I0
I24
I11
I0
I2
I449
I366
I1
I0
I18
I6
I0
I0
I61
I36
I1
I0
I51
I29
I0
I2
I86
I57
I1
I0
I60
I41
I0
I0
I50
I27
I0
I0
I47
I24
I0
tp236
g7
s(I2
I120
I82
I1
I0
I103
I72
I0
I0
I244
I230
I0
I0
I22
I12
I0
I0
I123
I88
I0
I0
I131
I102
I0
I0
I32
I16
I0
I0
I27
I15
I0
I0
I15
I6
I0
I0
I24
I11
I0
I2
I245
I191
I1
I0
I18
I6
I0
I0
I53
I32
I1
I0
I51
I29
I0
I2
I86
I57
I1
I0
I60
I41
I0
I0
I40
I21
I0
I0
I92
I53
I0
tp237
g4
s(I2
I154
I101
I1
I0
I122
I82
I0
I0
I244
I230
I0
I0
I22
I12
I0
I0
I129
I118
I0
I0
I131
I102
I0
I0
I25
I14
I0
I0
I27
I15
I0
I0
I15
I6
I0
I0
I24
I11
I0
I2
I189
I155
I1
I0
I18
I6
I0
I0
I67
I41
I1
I0
I51
I29
I0
I2
I86
I57
I1
I0
I60
I41
I0
I0
I41
I20
I0
I0
I77
I49
I0
tp238
g2
s(I2
I109
I71
I1
I0
I103
I75
I0
I0
I244
I230
I0
I0
I22
I12
I0
I0
I129
I118
I0
I0
I131
I102
I0
I0
I25
I14
I0
I0
I27
I15
I0
I0
I15
I6
I0
I0
I24
I11
I0
I2
I115
I89
I1
I0
I18
I6
I0
I0
I58
I35
I1
I0
I51
I29
I0
I2
I86
I57
I1
I0
I44
I32
I0
I0
I42
I21
I0
I0
I47
I27
I0
tp239
g4
s(I0
I176
I136
I2
I0
I108
I76
I0
I0
I244
I230
I0
I0
I22
I12
I0
I0
I129
I88
I0
I0
I131
I102
I0
I0
I30
I16
I0
I0
I32
I17
I0
I0
I15
I6
I0
I0
I24
I11
I0
I2
I217
I178
I1
I0
I18
I6
I0
I0
I62
I38
I1
I0
I51
I29
I0
I2
I86
I57
I1
I0
I60
I41
I0
I0
I62
I36
I0
I0
I79
I48
I0
tp240
g4
s(I2
I142
I93
I1
I0
I115
I80
I0
I0
I244
I230
I0
I0
I22
I12
I0
I0
I144
I95
I0
I0
I131
I102
I0
I0
I30
I16
I0
I0
I32
I17
I0
I0
I15
I6
I0
I0
I24
I11
I0
I2
I152
I105
I1
I0
I18
I6
I0
I0
I59
I32
I1
I0
I51
I29
I0
I2
I86
I57
I1
I0
I63
I51
I0
I0
I50
I27
I0
I0
I98
I59
I0
tp241
g4
s(I2
I118
I77
I1
I0
I110
I81
I0
I0
I244
I230
I0
I0
I25
I14
I0
I0
I129
I88
I0
I0
I131
I102
I0
I0
I25
I14
I0
I0
I27
I15
I0
I0
I15
I6
I0
I0
I24
I11
I0
I2
I270
I229
I1
I0
I18
I6
I0
I0
I59
I36
I1
I0
I51
I29
I0
I2
I86
I57
I1
I0
I60
I41
I0
I0
I38
I19
I0
I0
I97
I72
I0
tp242
g4
s(I2
I111
I71
I1
I0
I118
I79
I0
I0
I244
I230
I0
I0
I22
I12
I0
I0
I123
I88
I0
I0
I131
I102
I0
I0
I25
I14
I0
I0
I27
I15
I0
I0
I15
I6
I0
I0
I24
I11
I0
I2
I263
I193
I1
I0
I18
I6
I0
I0
I53
I32
I1
I0
I51
I29
I0
I2
I86
I57
I1
I0
I25
I13
I0
I0
I36
I17
I0
I0
I105
I71
I0
tp243
g2
s(I2
I139
I89
I1
I0
I86
I61
I0
I0
I244
I230
I0
I0
I22
I12
I0
I0
I144
I105
I0
I0
I131
I102
I0
I0
I35
I21
I0
I0
I27
I15
I0
I0
I15
I6
I0
I0
I24
I11
I0
I2
I179
I128
I1
I0
I18
I6
I0
I0
I64
I39
I1
I0
I51
I29
I0
I2
I86
I57
I1
I0
I60
I41
I0
I0
I48
I27
I0
I0
I55
I33
I0
tp244
g7
s(I2
I121
I83
I1
I0
I108
I77
I0
I0
I244
I230
I0
I0
I22
I12
I0
I0
I130
I119
I0
I0
I131
I102
I0
I0
I33
I18
I0
I0
I32
I17
I0
I0
I15
I6
I0
I0
I24
I11
I0
I2
I234
I202
I1
I0
I18
I6
I0
I0
I58
I36
I1
I0
I51
I29
I0
I2
I86
I57
I1
I0
I60
I41
I0
I0
I40
I21
I0
I0
I105
I65
I0
tp245
g2
s(I2
I100
I66
I1
I0
I142
I103
I0
I0
I244
I230
I0
I0
I22
I12
I0
I0
I99
I64
I0
I0
I131
I102
I0
I0
I37
I20
I0
I2
I24
I13
I1
I0
I15
I6
I0
I0
I24
I11
I0
I2
I276
I237
I1
I0
I18
I6
I0
I0
I53
I32
I1
I0
I51
I29
I0
I2
I86
I57
I1
I0
I77
I58
I0
I0
I38
I19
I0
I0
I86
I46
I0
tp246
g4
s(I2
I117
I75
I1
I0
I96
I69
I0
I0
I244
I230
I0
I0
I22
I12
I0
I0
I131
I102
I0
I0
I125
I90
I0
I0
I62
I35
I0
I0
I34
I19
I0
I0
I15
I6
I0
I0
I24
I11
I0
I2
I168
I122
I1
I0
I18
I6
I0
I0
I61
I38
I1
I0
I51
I29
I0
I2
I86
I57
I1
I0
I60
I41
I0
I0
I141
I95
I0
I0
I78
I49
I0
tp247
S'0'
p248
s(I2
I110
I73
I1
I0
I142
I102
I0
I0
I244
I230
I0
I0
I22
I12
I0
I0
I123
I88
I0
I0
I131
I102
I0
I0
I25
I14
I0
I0
I27
I15
I0
I0
I15
I6
I0
I0
I24
I11
I0
I2
I238
I198
I1
I0
I18
I6
I0
I0
I64
I35
I1
I0
I51
I29
I0
I2
I86
I57
I1
I0
I60
I41
I0
I0
I45
I22
I0
I0
I120
I67
I0
tp249
g7
s(I2
I112
I71
I1
I0
I108
I73
I0
I0
I244
I230
I0
I0
I22
I12
I0
I0
I286
I222
I0
I0
I131
I102
I0
I0
I25
I13
I0
I0
I27
I13
I0
I0
I15
I6
I0
I0
I24
I11
I0
I2
I176
I142
I1
I0
I15
I5
I0
I0
I62
I38
I1
I0
I51
I29
I0
I2
I86
I57
I1
I0
I14
I8
I0
I0
I38
I18
I0
I0
I85
I54
I0
tp250
g4
s(I2
I109
I69
I1
I0
I108
I77
I0
I0
I244
I230
I0
I0
I22
I12
I0
I0
I150
I132
I0
I0
I131
I102
I0
I0
I30
I16
I0
I0
I32
I17
I0
I0
I15
I6
I0
I0
I24
I11
I0
I2
I226
I194
I1
I0
I18
I6
I0
I0
I50
I30
I1
I0
I51
I29
I0
I2
I86
I57
I1
I0
I60
I41
I0
I0
I45
I24
I0
I0
I105
I70
I0
tp251
g4
s(I2
I126
I86
I1
I0
I109
I75
I0
I0
I244
I230
I0
I0
I22
I12
I0
I0
I187
I143
I0
I0
I131
I102
I0
I0
I32
I18
I0
I0
I27
I15
I0
I0
I15
I6
I0
I0
I24
I11
I0
I2
I158
I129
I1
I0
I18
I6
I0
I0
I59
I36
I1
I0
I51
I29
I0
I2
I86
I57
I1
I0
I60
I41
I0
I0
I38
I19
I0
I0
I97
I61
I0
tp252
g4
s(I2
I187
I110
I3
I0
I96
I67
I0
I0
I244
I230
I0
I0
I22
I12
I0
I0
I129
I118
I0
I0
I131
I102
I0
I0
I30
I16
I0
I0
I32
I17
I0
I0
I15
I6
I0
I0
I24
I11
I0
I2
I193
I163
I1
I0
I18
I6
I0
I0
I53
I32
I1
I0
I51
I29
I0
I2
I86
I57
I1
I0
I60
I41
I0
I0
I38
I19
I0
I0
I86
I53
I0
tp253
g7
s(I2
I122
I84
I1
I0
I110
I74
I0
I0
I244
I230
I0
I0
I22
I12
I0
I0
I146
I97
I0
I0
I131
I102
I0
I0
I39
I22
I0
I0
I41
I24
I0
I0
I15
I6
I0
I0
I24
I11
I0
I2
I251
I184
I1
I0
I18
I6
I0
I0
I54
I33
I1
I0
I51
I29
I0
I2
I86
I57
I1
I0
I60
I41
I0
I0
I47
I26
I0
I0
I94
I64
I0
tp254
g4
s(I0
I142
I103
I2
I0
I109
I75
I0
I0
I244
I230
I0
I0
I22
I12
I0
I0
I105
I64
I0
I0
I131
I102
I0
I0
I25
I14
I0
I0
I27
I15
I0
I0
I15
I6
I0
I0
I24
I11
I0
I2
I308
I241
I1
I0
I18
I6
I0
I0
I50
I30
I1
I0
I51
I29
I0
I2
I86
I57
I1
I0
I60
I41
I0
I0
I50
I25
I0
I0
I161
I120
I0
tp255
g4
s(I2
I130
I87
I1
I0
I101
I69
I0
I0
I244
I230
I0
I0
I22
I12
I0
I0
I172
I123
I0
I0
I131
I102
I0
I0
I25
I14
I0
I0
I27
I15
I0
I0
I15
I6
I0
I0
I24
I11
I0
I2
I166
I131
I1
I0
I18
I6
I0
I0
I50
I30
I1
I0
I51
I29
I0
I2
I86
I57
I1
I0
I60
I41
I0
I0
I38
I19
I0
I0
I90
I55
I0
tp256
g4
s(I3
I117
I81
I2
I0
I124
I82
I0
I0
I244
I230
I0
I0
I23
I13
I0
I0
I134
I98
I0
I0
I131
I102
I0
I0
I37
I20
I0
I0
I36
I19
I0
I0
I15
I6
I0
I0
I24
I11
I0
I2
I196
I143
I1
I0
I18
I6
I0
I0
I56
I34
I1
I0
I51
I29
I0
I2
I86
I57
I1
I0
I58
I39
I0
I0
I38
I19
I0
I0
I119
I77
I1
tp257
g7
s(I0
I130
I94
I2
I0
I130
I89
I0
I0
I244
I230
I0
I0
I22
I12
I0
I0
I131
I90
I0
I0
I131
I102
I0
I0
I27
I16
I0
I0
I29
I17
I0
I0
I15
I6
I0
I0
I24
I11
I0
I2
I212
I174
I1
I0
I18
I6
I0
I0
I58
I33
I1
I0
I51
I29
I0
I2
I86
I57
I1
I0
I60
I41
I0
I0
I56
I34
I0
I0
I92
I63
I0
tp258
g4
s(I2
I188
I132
I1
I0
I108
I70
I0
I0
I244
I230
I0
I0
I22
I12
I0
I0
I155
I142
I0
I0
I131
I102
I0
I0
I38
I24
I0
I0
I29
I17
I0
I0
I15
I6
I0
I0
I24
I11
I0
I2
I224
I190
I1
I0
I18
I6
I0
I0
I55
I31
I1
I0
I51
I29
I0
I2
I86
I57
I1
I0
I60
I41
I0
I0
I43
I23
I0
I0
I89
I58
I0
tp259
g7
s(I2
I126
I89
I1
I0
I108
I77
I0
I0
I244
I230
I0
I0
I22
I12
I0
I0
I179
I141
I0
I0
I131
I102
I0
I0
I28
I16
I0
I0
I27
I15
I0
I0
I15
I6
I0
I0
I24
I11
I0
I2
I230
I197
I1
I0
I18
I6
I0
I0
I56
I34
I1
I0
I51
I29
I0
I2
I86
I57
I1
I0
I60
I41
I0
I0
I45
I22
I0
I0
I101
I66
I0
tp260
g2
s(I2
I120
I81
I1
I0
I144
I96
I0
I0
I244
I230
I0
I0
I22
I12
I0
I0
I125
I90
I0
I0
I131
I102
I0
I0
I32
I18
I0
I0
I34
I19
I0
I0
I15
I6
I0
I0
I24
I11
I0
I2
I211
I152
I1
I0
I18
I6
I0
I0
I60
I35
I1
I0
I51
I29
I0
I2
I86
I57
I1
I0
I44
I32
I0
I0
I40
I21
I0
I0
I99
I70
I0
tp261
g4
s(I2
I120
I82
I1
I0
I108
I77
I0
I0
I244
I230
I0
I0
I22
I12
I0
I0
I129
I118
I0
I0
I131
I102
I0
I0
I25
I14
I0
I0
I27
I15
I0
I0
I15
I6
I0
I0
I24
I11
I0
I2
I282
I241
I1
I0
I18
I6
I0
I0
I50
I30
I1
I0
I51
I29
I0
I2
I86
I57
I1
I0
I60
I41
I0
I0
I38
I19
I0
I0
I103
I61
I0
tp262
g4
s(I2
I128
I82
I1
I0
I119
I84
I0
I0
I244
I230
I0
I0
I16
I8
I0
I0
I155
I117
I0
I0
I131
I102
I0
I0
I25
I14
I0
I0
I30
I16
I0
I0
I15
I6
I0
I0
I24
I11
I0
I2
I220
I182
I1
I0
I18
I6
I0
I0
I45
I22
I1
I0
I51
I29
I0
I2
I86
I57
I1
I0
I99
I87
I0
I0
I47
I23
I0
I0
I72
I45
I0
tp263
g4
s(I2
I102
I64
I1
I0
I93
I64
I0
I0
I244
I230
I0
I0
I22
I12
I0
I0
I123
I88
I0
I0
I131
I102
I0
I0
I25
I14
I0
I0
I27
I15
I0
I0
I15
I6
I0
I0
I24
I11
I0
I2
I185
I147
I1
I0
I18
I6
I0
I0
I50
I30
I1
I0
I51
I29
I0
I2
I86
I57
I1
I0
I44
I32
I0
I0
I38
I19
I0
I0
I81
I50
I0
tp264
g2
s(I2
I102
I69
I1
I0
I119
I88
I0
I0
I244
I230
I0
I0
I22
I12
I0
I0
I131
I90
I0
I0
I131
I102
I0
I0
I27
I16
I0
I0
I44
I27
I0
I0
I15
I6
I0
I0
I24
I11
I0
I2
I187
I157
I1
I0
I18
I6
I0
I0
I58
I36
I1
I0
I51
I29
I0
I2
I86
I57
I1
I0
I60
I41
I0
I0
I35
I17
I0
I0
I104
I75
I0
tp265
g2
s(I2
I133
I96
I1
I0
I126
I87
I0
I0
I244
I230
I0
I0
I22
I12
I0
I0
I129
I118
I0
I0
I131
I102
I0
I0
I27
I16
I0
I0
I28
I16
I0
I0
I15
I6
I0
I0
I24
I11
I0
I2
I372
I330
I1
I0
I18
I6
I0
I0
I57
I35
I1
I0
I51
I29
I0
I2
I86
I57
I1
I0
I60
I41
I0
I0
I51
I30
I0
I0
I62
I42
I0
tp266
g7
s(I2
I112
I71
I1
I0
I128
I92
I0
I0
I244
I230
I0
I0
I22
I12
I0
I0
I129
I118
I0
I0
I131
I102
I0
I0
I25
I14
I0
I0
I27
I15
I0
I0
I15
I6
I0
I0
I24
I11
I0
I2
I203
I153
I1
I0
I18
I6
I0
I0
I50
I30
I1
I0
I51
I29
I0
I2
I86
I57
I1
I0
I60
I41
I0
I0
I38
I19
I0
I0
I74
I48
I0
tp267
g4
s(I2
I113
I76
I1
I0
I109
I74
I0
I0
I244
I230
I0
I0
I22
I12
I0
I0
I129
I117
I0
I0
I131
I102
I0
I0
I25
I13
I0
I0
I27
I13
I0
I0
I15
I6
I0
I0
I24
I11
I0
I2
I193
I135
I1
I0
I18
I6
I0
I0
I50
I30
I1
I0
I51
I29
I0
I2
I86
I57
I1
I0
I63
I51
I0
I0
I38
I19
I0
I0
I93
I63
I0
tp268
g4
s(I2
I181
I123
I1
I0
I108
I73
I0
I0
I244
I230
I0
I0
I22
I12
I0
I0
I111
I95
I0
I0
I131
I102
I0
I0
I30
I16
I0
I0
I32
I17
I0
I0
I15
I6
I0
I0
I24
I11
I0
I2
I199
I147
I1
I0
I18
I6
I0
I0
I55
I33
I1
I0
I51
I29
I0
I2
I86
I57
I1
I0
I60
I41
I0
I0
I38
I19
I0
I0
I81
I53
I0
tp269
g4
s(I2
I106
I68
I1
I0
I109
I71
I0
I0
I244
I230
I0
I0
I22
I12
I0
I0
I161
I117
I0
I0
I131
I102
I0
I0
I25
I13
I0
I0
I27
I13
I0
I0
I15
I6
I0
I0
I24
I11
I0
I2
I178
I140
I1
I0
I18
I6
I0
I0
I59
I36
I1
I0
I51
I29
I0
I2
I86
I57
I1
I0
I60
I41
I0
I0
I40
I20
I0
I0
I74
I47
I0
tp270
g4
s(I2
I126
I86
I1
I0
I120
I85
I0
I0
I244
I230
I0
I0
I22
I12
I0
I0
I152
I134
I0
I0
I131
I102
I0
I0
I32
I18
I0
I0
I34
I19
I0
I0
I15
I6
I0
I0
I24
I11
I0
I2
I236
I206
I1
I0
I18
I6
I0
I0
I60
I35
I1
I0
I51
I29
I0
I2
I86
I57
I1
I0
I60
I41
I0
I0
I54
I29
I0
I0
I112
I73
I0
tp271
g4
s(I2
I116
I76
I1
I0
I135
I88
I0
I0
I254
I240
I0
I0
I22
I12
I0
I0
I152
I106
I0
I0
I131
I102
I0
I0
I32
I16
I0
I0
I34
I18
I0
I0
I15
I6
I0
I0
I24
I11
I0
I2
I214
I177
I1
I0
I18
I6
I0
I0
I57
I36
I1
I0
I51
I29
I0
I2
I86
I57
I1
I0
I25
I13
I0
I0
I38
I19
I0
I0
I78
I48
I0
tp272
g7
s(I3
I136
I82
I2
I0
I104
I70
I0
I0
I244
I230
I0
I0
I22
I12
I0
I0
I150
I105
I0
I0
I131
I102
I0
I0
I32
I16
I0
I0
I27
I15
I0
I0
I15
I6
I0
I0
I24
I11
I0
I2
I255
I197
I1
I0
I18
I6
I0
I0
I53
I32
I1
I0
I51
I29
I0
I2
I86
I57
I1
I0
I63
I51
I0
I0
I40
I21
I0
I0
I91
I53
I0
tp273
g4
s(I2
I115
I74
I1
I0
I103
I71
I0
I0
I244
I230
I0
I0
I22
I12
I0
I0
I131
I90
I0
I0
I131
I102
I0
I0
I27
I16
I0
I0
I29
I15
I0
I0
I15
I6
I0
I0
I24
I11
I0
I2
I159
I122
I1
I0
I18
I6
I0
I0
I45
I24
I1
I0
I51
I29
I0
I2
I86
I57
I1
I0
I60
I41
I0
I0
I40
I20
I0
I0
I94
I60
I0
tp274
g2
s(I2
I114
I75
I1
I0
I126
I92
I0
I0
I244
I230
I0
I0
I22
I12
I0
I0
I129
I88
I0
I0
I131
I102
I0
I0
I30
I16
I0
I0
I27
I15
I0
I0
I15
I6
I0
I0
I24
I11
I0
I2
I312
I246
I1
I0
I18
I6
I0
I0
I50
I30
I1
I0
I51
I29
I0
I2
I86
I57
I1
I0
I60
I41
I0
I0
I38
I19
I0
I0
I130
I89
I0
tp275
g4
s(I2
I108
I70
I1
I0
I107
I77
I0
I0
I244
I230
I0
I0
I22
I12
I0
I0
I48
I31
I0
I0
I131
I102
I0
I0
I25
I13
I0
I0
I27
I13
I0
I0
I15
I6
I0
I0
I24
I11
I0
I2
I171
I134
I1
I0
I18
I6
I0
I0
I55
I34
I1
I0
I51
I29
I0
I2
I86
I57
I1
I0
I60
I41
I0
I0
I42
I21
I0
I0
I79
I50
I0
tp276
g4
s(I0
I187
I142
I2
I0
I108
I77
I0
I0
I244
I230
I0
I0
I22
I12
I0
I0
I129
I118
I0
I0
I131
I102
I0
I0
I25
I14
I0
I0
I27
I15
I0
I0
I15
I6
I0
I0
I24
I11
I0
I2
I214
I174
I1
I0
I18
I6
I0
I0
I56
I34
I1
I0
I51
I29
I0
I2
I86
I57
I1
I0
I54
I44
I0
I0
I45
I22
I0
I0
I81
I53
I0
tp277
g4
s(I2
I117
I76
I1
I0
I117
I78
I0
I0
I244
I230
I0
I0
I22
I12
I0
I0
I129
I118
I0
I0
I131
I102
I0
I0
I37
I19
I0
I0
I32
I15
I0
I0
I15
I6
I0
I0
I24
I11
I0
I2
I222
I176
I1
I0
I18
I6
I0
I0
I53
I32
I1
I0
I51
I29
I0
I2
I86
I57
I1
I0
I60
I41
I0
I0
I38
I18
I0
I0
I103
I60
I0
tp278
g2
s(I2
I109
I71
I1
I0
I106
I77
I0
I0
I244
I230
I0
I0
I22
I12
I0
I0
I132
I114
I0
I0
I131
I102
I0
I0
I35
I22
I0
I0
I37
I23
I0
I0
I15
I6
I0
I0
I24
I11
I0
I2
I157
I125
I1
I0
I18
I6
I0
I0
I63
I40
I1
I0
I51
I29
I0
I2
I86
I57
I1
I0
I60
I41
I0
I0
I44
I23
I0
I0
I88
I50
I0
tp279
g4
s(I2
I123
I84
I1
I0
I130
I101
I0
I0
I244
I230
I0
I0
I22
I12
I0
I0
I129
I88
I0
I0
I131
I102
I0
I0
I25
I14
I0
I0
I27
I15
I0
I0
I15
I6
I0
I0
I24
I11
I0
I2
I436
I384
I1
I0
I18
I6
I0
I0
I58
I35
I1
I0
I51
I29
I0
I2
I86
I57
I1
I0
I60
I41
I0
I0
I38
I19
I0
I0
I76
I49
I0
tp280
g7
s(I2
I118
I76
I1
I0
I132
I91
I0
I0
I244
I230
I0
I0
I22
I12
I0
I0
I146
I132
I0
I0
I131
I102
I0
I0
I27
I16
I0
I0
I29
I17
I0
I0
I15
I6
I0
I0
I24
I11
I0
I2
I137
I100
I1
I0
I18
I6
I0
I0
I55
I34
I1
I0
I51
I29
I0
I2
I86
I57
I1
I0
I58
I39
I0
I0
I40
I21
I0
I0
I100
I65
I0
tp281
g2
s(I2
I109
I66
I1
I0
I153
I111
I0
I0
I244
I230
I0
I0
I22
I12
I0
I0
I140
I99
I0
I0
I131
I102
I0
I0
I35
I21
I0
I0
I37
I23
I0
I0
I15
I6
I0
I0
I24
I11
I0
I2
I256
I225
I1
I0
I18
I6
I0
I0
I68
I41
I1
I0
I51
I29
I0
I2
I86
I57
I1
I0
I44
I32
I0
I0
I45
I24
I0
I0
I103
I64
I0
tp282
g4
s(I2
I126
I86
I1
I0
I108
I77
I0
I0
I244
I230
I0
I0
I22
I12
I0
I0
I123
I88
I0
I0
I131
I102
I0
I0
I25
I14
I0
I0
I27
I15
I0
I0
I15
I6
I0
I0
I24
I11
I0
I2
I202
I168
I1
I0
I18
I6
I0
I0
I53
I32
I1
I0
I51
I29
I0
I2
I86
I57
I1
I0
I60
I41
I0
I0
I42
I21
I0
I0
I128
I86
I0
tp283
g4
s(I2
I98
I62
I1
I0
I132
I95
I0
I0
I244
I230
I0
I0
I22
I12
I0
I0
I129
I118
I0
I0
I131
I102
I0
I0
I30
I16
I0
I0
I32
I17
I0
I0
I15
I6
I0
I0
I24
I11
I0
I2
I195
I156
I1
I0
I18
I6
I0
I0
I43
I22
I1
I0
I51
I29
I0
I2
I86
I57
I1
I0
I60
I41
I0
I0
I38
I19
I0
I0
I95
I64
I0
tp284
g4
s(I0
I139
I94
I1
I0
I134
I95
I0
I0
I244
I230
I0
I0
I22
I12
I0
I0
I144
I95
I0
I0
I131
I102
I0
I0
I25
I14
I0
I0
I27
I15
I0
I0
I15
I6
I0
I0
I24
I11
I0
I2
I157
I118
I1
I0
I18
I6
I0
I0
I58
I35
I1
I0
I51
I29
I0
I2
I86
I57
I1
I0
I60
I41
I0
I0
I38
I18
I0
I0
I82
I53
I0
tp285
g4
s(I2
I126
I87
I1
I0
I104
I75
I0
I0
I287
I273
I0
I0
I22
I12
I0
I0
I105
I94
I0
I0
I131
I102
I0
I0
I25
I14
I0
I0
I27
I15
I0
I0
I15
I6
I0
I0
I24
I11
I0
I2
I232
I184
I1
I0
I18
I6
I0
I0
I61
I39
I1
I0
I51
I29
I0
I2
I86
I57
I1
I0
I60
I41
I0
I0
I38
I19
I0
I0
I165
I117
I0
tp286
g7
s(I2
I126
I86
I1
I0
I99
I64
I0
I0
I244
I230
I0
I0
I22
I12
I0
I0
I150
I132
I0
I0
I131
I102
I0
I0
I62
I37
I0
I0
I32
I17
I0
I0
I15
I6
I0
I0
I24
I11
I0
I2
I131
I96
I1
I0
I18
I6
I0
I0
I67
I41
I1
I0
I51
I29
I0
I2
I86
I57
I1
I0
I60
I41
I0
I0
I38
I19
I0
I0
I75
I46
I0
tp287
g2
s(I2
I107
I71
I1
I0
I107
I76
I0
I0
I244
I230
I0
I0
I22
I12
I0
I0
I38
I26
I0
I0
I131
I102
I0
I0
I24
I13
I0
I0
I26
I14
I0
I0
I15
I6
I0
I0
I24
I11
I0
I2
I191
I122
I1
I0
I18
I6
I0
I0
I50
I30
I1
I0
I51
I29
I0
I2
I86
I57
I1
I0
I60
I41
I0
I0
I38
I18
I0
I0
I71
I44
I0
tp288
g2
s(I2
I122
I81
I1
I0
I131
I95
I0
I0
I244
I230
I0
I0
I22
I12
I0
I0
I144
I130
I0
I0
I131
I102
I0
I0
I25
I14
I0
I0
I27
I15
I0
I0
I15
I6
I0
I0
I24
I11
I0
I2
I232
I188
I1
I0
I18
I6
I0
I0
I64
I39
I1
I0
I51
I29
I0
I2
I86
I57
I1
I0
I60
I41
I0
I0
I50
I27
I0
I0
I135
I97
I0
tp289
g4
s(I2
I142
I104
I1
I0
I118
I72
I0
I0
I244
I230
I0
I0
I22
I12
I0
I0
I129
I82
I0
I0
I131
I102
I0
I0
I28
I16
I0
I0
I27
I15
I0
I0
I15
I6
I0
I0
I24
I11
I0
I2
I222
I164
I1
I0
I18
I6
I0
I0
I59
I36
I1
I0
I51
I29
I0
I2
I86
I57
I1
I0
I60
I41
I0
I0
I38
I19
I0
I0
I75
I47
I0
tp290
g4
s(I2
I114
I79
I1
I0
I106
I77
I0
I0
I244
I230
I0
I0
I22
I12
I0
I0
I141
I101
I0
I0
I131
I102
I0
I0
I27
I16
I0
I0
I29
I17
I0
I0
I15
I6
I0
I0
I24
I11
I0
I2
I235
I197
I1
I0
I18
I6
I0
I0
I58
I36
I1
I0
I51
I29
I0
I2
I86
I57
I1
I0
I60
I41
I0
I0
I40
I21
I0
I0
I88
I54
I0
tp291
g4
s(I2
I123
I89
I1
I0
I116
I79
I0
I0
I254
I240
I0
I0
I22
I12
I0
I0
I60
I43
I0
I0
I131
I102
I0
I0
I27
I16
I0
I0
I29
I17
I0
I0
I15
I6
I0
I0
I24
I11
I0
I2
I251
I187
I1
I0
I18
I6
I0
I0
I58
I33
I1
I0
I51
I29
I0
I2
I86
I57
I1
I0
I60
I41
I0
I0
I40
I21
I0
I0
I86
I55
I0
tp292
g4
s(I2
I115
I81
I1
I0
I101
I69
I0
I0
I244
I230
I0
I0
I22
I12
I0
I0
I199
I151
I0
I0
I131
I102
I0
I0
I25
I14
I0
I0
I27
I15
I0
I0
I15
I6
I0
I0
I24
I11
I0
I2
I200
I150
I1
I0
I18
I6
I0
I0
I53
I32
I1
I0
I51
I29
I0
I2
I86
I57
I1
I0
I60
I41
I0
I0
I38
I19
I0
I0
I172
I107
I0
tp293
g7
s(I2
I111
I71
I1
I0
I107
I73
I0
I0
I244
I230
I0
I0
I22
I12
I0
I0
I131
I119
I0
I0
I131
I102
I0
I0
I27
I16
I0
I0
I29
I17
I0
I0
I15
I6
I0
I0
I24
I11
I0
I2
I277
I221
I1
I0
I18
I6
I0
I0
I64
I40
I1
I0
I51
I29
I0
I2
I86
I57
I1
I0
I60
I41
I0
I0
I40
I21
I0
I0
I129
I89
I0
tp294
g4
s(I2
I107
I70
I1
I0
I104
I75
I0
I0
I242
I228
I0
I0
I22
I12
I0
I0
I144
I130
I0
I0
I131
I102
I0
I0
I25
I13
I0
I0
I27
I13
I0
I0
I15
I6
I0
I0
I24
I11
I0
I2
I231
I179
I1
I0
I18
I6
I0
I0
I46
I23
I1
I0
I51
I29
I0
I2
I86
I57
I1
I0
I58
I39
I0
I0
I48
I22
I0
I0
I91
I59
I0
tp295
g4
s(I2
I118
I82
I1
I0
I112
I83
I0
I0
I639
I625
I0
I0
I22
I12
I0
I0
I125
I90
I0
I0
I131
I102
I0
I0
I27
I16
I0
I0
I29
I17
I0
I0
I15
I6
I0
I0
I24
I11
I0
I2
I141
I111
I1
I0
I18
I6
I0
I0
I58
I33
I1
I0
I51
I29
I0
I2
I86
I57
I1
I0
I60
I41
I0
I0
I47
I24
I0
I0
I92
I61
I0
tp296
g2
s(I2
I106
I71
I1
I0
I102
I71
I0
I0
I244
I230
I0
I0
I22
I12
I0
I0
I38
I26
I0
I0
I131
I102
I0
I0
I20
I11
I0
I0
I22
I12
I0
I0
I15
I6
I0
I0
I24
I11
I0
I2
I196
I138
I1
I0
I18
I6
I0
I0
I53
I32
I1
I0
I51
I29
I0
I2
I86
I57
I1
I0
I60
I41
I0
I0
I38
I19
I0
I0
I96
I67
I0
tp297
g2
s(I0
I145
I108
I2
I0
I108
I74
I0
I0
I244
I230
I0
I0
I22
I12
I0
I0
I141
I128
I0
I0
I131
I102
I0
I0
I25
I14
I0
I0
I27
I15
I0
I0
I15
I6
I0
I0
I24
I11
I0
I2
I202
I166
I1
I0
I18
I6
I0
I0
I70
I47
I1
I0
I51
I29
I0
I2
I86
I57
I1
I0
I60
I41
I0
I0
I40
I21
I0
I0
I81
I51
I0
tp298
g4
s(I2
I113
I69
I1
I0
I83
I59
I0
I0
I244
I230
I0
I0
I22
I12
I0
I0
I220
I197
I0
I0
I131
I102
I0
I0
I32
I18
I0
I0
I34
I19
I0
I0
I15
I6
I0
I0
I24
I11
I0
I2
I185
I148
I1
I0
I18
I6
I0
I0
I61
I38
I1
I0
I51
I29
I0
I2
I86
I57
I1
I0
I60
I41
I0
I0
I40
I21
I0
I0
I72
I41
I0
tp299
g2
s(I2
I114
I74
I1
I0
I108
I76
I0
I0
I244
I230
I0
I0
I22
I12
I0
I0
I106
I71
I0
I0
I131
I102
I0
I0
I25
I14
I0
I0
I27
I15
I0
I0
I15
I6
I0
I0
I24
I11
I0
I2
I161
I128
I1
I0
I18
I6
I0
I0
I42
I21
I1
I0
I51
I29
I0
I2
I86
I57
I1
I0
I60
I41
I0
I0
I38
I19
I0
I0
I84
I56
I0
tp300
g4
s(I2
I103
I65
I1
I0
I105
I71
I0
I0
I244
I230
I0
I0
I22
I12
I0
I0
I91
I73
I0
I0
I131
I102
I0
I0
I25
I14
I0
I0
I27
I15
I0
I0
I15
I6
I0
I0
I24
I11
I0
I2
I189
I151
I1
I0
I18
I6
I0
I0
I53
I32
I1
I0
I51
I29
I0
I2
I86
I57
I1
I0
I60
I41
I0
I0
I42
I21
I0
I0
I90
I57
I0
tp301
g4
s(I0
I141
I104
I2
I0
I113
I76
I0
I0
I244
I230
I0
I0
I22
I12
I0
I0
I131
I90
I0
I0
I131
I102
I0
I0
I30
I18
I0
I0
I29
I17
I0
I0
I15
I6
I0
I0
I24
I11
I0
I2
I137
I112
I1
I0
I18
I6
I0
I0
I52
I32
I1
I0
I51
I29
I0
I2
I86
I57
I1
I0
I63
I51
I0
I0
I40
I21
I0
I0
I114
I79
I0
tp302
g2
s(I2
I115
I72
I1
I0
I156
I120
I0
I0
I244
I230
I0
I0
I22
I12
I0
I0
I143
I102
I0
I0
I131
I102
I0
I0
I25
I14
I0
I0
I27
I15
I0
I0
I15
I6
I0
I0
I24
I11
I0
I2
I162
I129
I1
I0
I18
I6
I0
I0
I45
I22
I1
I0
I51
I29
I0
I2
I86
I57
I1
I0
I60
I41
I0
I0
I38
I19
I0
I0
I77
I48
I0
tp303
g4
s(I0
I166
I125
I2
I0
I112
I80
I0
I0
I244
I230
I0
I0
I22
I12
I0
I0
I129
I88
I0
I0
I131
I102
I0
I0
I26
I15
I0
I0
I35
I21
I0
I0
I15
I6
I0
I0
I24
I11
I0
I2
I163
I130
I1
I0
I18
I6
I0
I0
I56
I31
I1
I0
I51
I29
I0
I2
I86
I57
I1
I0
I60
I41
I0
I0
I42
I21
I0
I0
I79
I49
I0
tp304
g4
s(I2
I128
I85
I1
I0
I155
I104
I0
I0
I244
I230
I0
I0
I22
I12
I0
I0
I131
I120
I0
I0
I131
I102
I0
I0
I27
I16
I0
I0
I29
I17
I0
I0
I15
I6
I0
I0
I24
I11
I0
I2
I247
I210
I1
I0
I18
I6
I0
I0
I69
I43
I1
I0
I51
I29
I0
I2
I86
I57
I1
I0
I60
I41
I0
I0
I44
I23
I0
I0
I85
I47
I0
tp305
g4
s(I2
I154
I108
I1
I0
I130
I87
I0
I0
I244
I230
I0
I0
I22
I12
I0
I0
I171
I132
I0
I0
I131
I102
I0
I0
I27
I15
I0
I0
I39
I20
I0
I0
I15
I6
I0
I0
I24
I11
I0
I2
I239
I164
I1
I0
I18
I6
I0
I0
I57
I36
I1
I0
I51
I29
I0
I2
I86
I57
I1
I0
I60
I41
I0
I0
I40
I21
I0
I0
I114
I75
I0
tp306
g2
s(I2
I107
I69
I1
I0
I111
I77
I0
I0
I244
I230
I0
I0
I22
I12
I0
I0
I174
I158
I0
I0
I132
I102
I0
I0
I30
I16
I0
I0
I32
I17
I0
I0
I15
I6
I0
I0
I24
I11
I0
I2
I192
I153
I1
I0
I18
I6
I0
I0
I52
I31
I1
I0
I51
I29
I0
I2
I86
I57
I1
I0
I60
I41
I0
I0
I45
I25
I0
I0
I88
I52
I0
tp307
g4
s(I2
I118
I78
I1
I0
I130
I94
I0
I0
I244
I230
I0
I0
I22
I12
I0
I0
I47
I32
I0
I0
I131
I102
I0
I0
I27
I15
I0
I0
I29
I15
I0
I0
I15
I6
I0
I0
I24
I11
I0
I2
I226
I195
I1
I0
I18
I6
I0
I0
I60
I37
I1
I0
I51
I29
I0
I2
I86
I57
I1
I0
I60
I41
I0
I0
I44
I23
I0
I0
I101
I64
I0
tp308
g2
s(I2
I116
I74
I1
I0
I122
I82
I0
I0
I244
I230
I0
I0
I22
I12
I0
I0
I123
I88
I0
I0
I131
I102
I0
I0
I39
I25
I0
I0
I27
I15
I0
I0
I15
I6
I0
I0
I24
I11
I0
I2
I250
I206
I1
I0
I18
I6
I0
I0
I51
I31
I1
I0
I51
I29
I0
I2
I86
I57
I1
I0
I60
I41
I0
I0
I38
I18
I0
I0
I85
I50
I0
tp309
g7
s(I2
I130
I87
I1
I0
I136
I99
I0
I0
I244
I230
I0
I0
I22
I12
I0
I0
I43
I30
I0
I0
I131
I102
I0
I0
I30
I16
I0
I0
I39
I22
I0
I0
I15
I6
I0
I0
I24
I11
I0
I2
I171
I135
I1
I0
I18
I6
I0
I0
I53
I32
I1
I0
I51
I29
I0
I2
I86
I57
I1
I0
I60
I41
I0
I0
I42
I21
I0
I0
I84
I55
I0
tp310
g4
s(I2
I153
I110
I1
I0
I121
I88
I0
I0
I244
I230
I0
I0
I22
I12
I0
I0
I134
I85
I0
I0
I131
I102
I0
I0
I27
I16
I0
I0
I29
I17
I0
I0
I15
I6
I0
I0
I24
I11
I0
I2
I199
I162
I1
I0
I18
I6
I0
I0
I55
I31
I1
I0
I51
I29
I0
I2
I86
I57
I1
I0
I60
I41
I0
I0
I40
I20
I0
I0
I175
I129
I0
tp311
g7
s(I2
I120
I76
I1
I0
I125
I85
I0
I0
I244
I230
I0
I0
I22
I12
I0
I0
I131
I120
I0
I0
I131
I102
I0
I0
I30
I18
I0
I0
I29
I17
I0
I0
I15
I6
I0
I0
I24
I11
I0
I2
I243
I199
I1
I0
I18
I6
I0
I0
I55
I31
I1
I0
I51
I29
I0
I2
I86
I57
I1
I0
I60
I41
I0
I0
I40
I21
I0
I0
I63
I38
I0
tp312
g4
s(I2
I128
I86
I1
I0
I108
I77
I0
I0
I244
I230
I0
I0
I22
I12
I0
I0
I91
I73
I0
I0
I131
I102
I0
I0
I30
I16
I0
I0
I32
I17
I0
I0
I15
I6
I0
I0
I24
I11
I0
I2
I201
I144
I1
I0
I18
I6
I0
I0
I62
I38
I1
I0
I51
I29
I0
I2
I86
I57
I1
I0
I60
I41
I0
I0
I38
I19
I0
I0
I127
I93
I0
tp313
g4
s(I2
I177
I113
I1
I0
I158
I101
I0
I0
I244
I230
I0
I0
I22
I12
I0
I0
I129
I88
I0
I0
I131
I102
I0
I0
I25
I14
I0
I0
I40
I21
I0
I0
I15
I6
I0
I0
I24
I11
I0
I2
I261
I207
I1
I0
I18
I6
I0
I0
I64
I41
I1
I0
I51
I29
I0
I2
I86
I57
I1
I0
I60
I41
I0
I0
I45
I24
I0
I0
I108
I71
I0
tp314
g2
s(I2
I112
I72
I1
I0
I110
I81
I0
I0
I244
I230
I0
I0
I22
I12
I0
I0
I185
I171
I0
I0
I131
I102
I0
I0
I25
I13
I0
I0
I27
I13
I0
I0
I15
I6
I0
I0
I24
I11
I0
I2
I215
I174
I1
I0
I18
I6
I0
I0
I56
I34
I1
I0
I51
I29
I0
I2
I86
I57
I1
I0
I60
I41
I0
I0
I38
I18
I0
I0
I72
I42
I0
tp315
g4
s(I0
I168
I126
I2
I0
I133
I95
I0
I0
I244
I230
I0
I0
I22
I12
I0
I0
I150
I132
I0
I0
I131
I102
I0
I0
I25
I14
I0
I0
I27
I15
I0
I0
I15
I6
I0
I0
I24
I11
I0
I2
I187
I149
I1
I0
I18
I6
I0
I0
I56
I31
I1
I0
I51
I29
I0
I2
I86
I57
I1
I0
I60
I41
I0
I0
I38
I19
I0
I0
I73
I41
I0
tp316
g2
s(I2
I117
I77
I1
I0
I108
I77
I0
I0
I244
I230
I0
I0
I22
I12
I0
I0
I90
I73
I0
I0
I131
I102
I0
I0
I25
I14
I0
I0
I27
I15
I0
I0
I15
I6
I0
I0
I24
I11
I0
I2
I193
I144
I1
I0
I18
I6
I0
I0
I61
I36
I1
I0
I53
I31
I0
I2
I86
I57
I1
I0
I60
I41
I0
I0
I38
I18
I0
I0
I95
I59
I0
tp317
g4
s(I2
I111
I74
I1
I0
I102
I70
I0
I0
I244
I230
I0
I0
I22
I12
I0
I0
I125
I89
I0
I0
I131
I102
I0
I0
I25
I14
I0
I0
I27
I15
I0
I0
I15
I6
I0
I0
I24
I11
I0
I2
I139
I111
I1
I0
I18
I6
I0
I0
I62
I38
I1
I0
I51
I29
I0
I2
I86
I57
I1
I0
I60
I41
I0
I0
I45
I22
I0
I0
I55
I28
I0
tp318
g2
s(I2
I132
I95
I1
I0
I137
I88
I0
I0
I244
I230
I0
I0
I22
I12
I0
I0
I394
I319
I0
I0
I131
I102
I0
I0
I27
I16
I0
I0
I29
I17
I0
I0
I15
I6
I0
I0
I24
I11
I0
I2
I296
I246
I1
I0
I18
I6
I0
I0
I57
I36
I1
I0
I51
I29
I0
I2
I86
I57
I1
I0
I60
I41
I0
I0
I40
I21
I0
I0
I85
I55
I0
tp319
g4
s(I2
I123
I85
I1
I0
I150
I107
I0
I0
I244
I230
I0
I0
I22
I12
I0
I0
I131
I120
I0
I0
I131
I102
I0
I0
I27
I15
I0
I0
I39
I21
I0
I0
I15
I6
I0
I0
I24
I11
I0
I2
I270
I219
I1
I0
I18
I6
I0
I0
I60
I35
I1
I0
I51
I29
I0
I2
I86
I57
I1
I0
I60
I41
I0
I0
I40
I21
I0
I0
I101
I70
I0
tp320
g2
s(I2
I110
I71
I1
I0
I104
I72
I0
I0
I244
I230
I0
I0
I22
I12
I0
I0
I141
I128
I0
I0
I131
I102
I0
I0
I27
I15
I0
I0
I29
I15
I0
I0
I15
I6
I0
I0
I24
I11
I0
I2
I153
I106
I1
I0
I18
I6
I0
I0
I59
I38
I1
I0
I51
I29
I0
I2
I86
I57
I1
I0
I60
I41
I0
I0
I40
I20
I0
I0
I105
I70
I0
tp321
g2
s(I2
I138
I94
I1
I0
I110
I81
I0
I0
I244
I230
I0
I0
I22
I12
I0
I0
I114
I89
I0
I0
I131
I102
I0
I0
I27
I15
I0
I0
I29
I15
I0
I0
I15
I6
I0
I0
I24
I11
I0
I2
I218
I179
I1
I0
I18
I6
I0
I0
I55
I34
I1
I0
I51
I29
I0
I2
I86
I57
I1
I0
I60
I41
I0
I0
I40
I20
I0
I0
I96
I62
I0
tp322
g4
s(I2
I119
I81
I1
I0
I104
I75
I0
I0
I244
I230
I0
I0
I22
I12
I0
I0
I149
I132
I0
I0
I131
I102
I0
I0
I30
I16
I0
I0
I32
I17
I0
I0
I15
I6
I0
I0
I24
I11
I0
I2
I175
I129
I1
I0
I18
I6
I0
I0
I53
I29
I1
I0
I51
I29
I0
I2
I86
I57
I1
I0
I60
I41
I0
I0
I43
I22
I0
I0
I109
I76
I0
tp323
g4
s(I2
I106
I69
I1
I0
I101
I68
I0
I0
I244
I230
I0
I0
I22
I12
I0
I0
I123
I109
I0
I0
I131
I102
I0
I0
I25
I14
I0
I0
I22
I12
I0
I0
I15
I6
I0
I0
I24
I11
I0
I2
I220
I176
I1
I0
I18
I6
I0
I0
I50
I30
I1
I0
I51
I29
I0
I2
I86
I57
I1
I0
I60
I41
I0
I0
I38
I19
I0
I0
I33
I18
I0
tp324
g2
s(I2
I131
I86
I1
I0
I108
I77
I0
I0
I244
I230
I0
I0
I22
I12
I0
I0
I185
I171
I0
I0
I131
I102
I0
I0
I25
I14
I0
I0
I27
I15
I0
I0
I15
I6
I0
I0
I24
I11
I0
I2
I246
I202
I1
I0
I18
I6
I0
I0
I62
I38
I1
I0
I51
I29
I0
I2
I86
I57
I1
I0
I60
I41
I0
I0
I38
I19
I0
I0
I84
I54
I0
tp325
g4
s(I2
I117
I78
I1
I0
I108
I74
I0
I0
I244
I230
I0
I0
I22
I12
I0
I0
I134
I91
I0
I0
I131
I102
I0
I0
I32
I18
I0
I0
I34
I19
I0
I0
I15
I6
I0
I0
I24
I11
I0
I2
I181
I128
I1
I0
I18
I6
I0
I0
I52
I32
I1
I0
I51
I29
I0
I2
I86
I57
I1
I0
I60
I41
I0
I0
I40
I20
I0
I0
I88
I62
I0
tp326
g2
s(I2
I111
I72
I1
I0
I118
I84
I0
I0
I244
I230
I0
I0
I22
I12
I0
I0
I129
I88
I0
I0
I131
I102
I0
I0
I25
I13
I0
I0
I27
I13
I0
I0
I15
I6
I0
I0
I24
I11
I0
I2
I189
I136
I1
I0
I18
I6
I0
I0
I53
I32
I1
I0
I51
I29
I0
I2
I86
I57
I1
I0
I60
I41
I0
I0
I38
I19
I0
I0
I78
I48
I0
tp327
g4
s(I2
I114
I77
I1
I0
I102
I69
I0
I0
I244
I230
I0
I0
I22
I12
I0
I0
I115
I94
I0
I0
I131
I102
I0
I0
I25
I14
I0
I0
I27
I15
I0
I0
I15
I6
I0
I0
I24
I11
I0
I2
I231
I166
I1
I0
I18
I6
I0
I0
I56
I31
I1
I0
I51
I29
I0
I2
I86
I57
I1
I0
I60
I41
I0
I0
I38
I19
I0
I0
I87
I54
I0
tp328
g2
s(I2
I120
I78
I1
I0
I145
I105
I0
I0
I244
I230
I0
I0
I22
I12
I0
I0
I118
I101
I0
I0
I131
I102
I0
I0
I25
I14
I0
I0
I27
I15
I0
I0
I15
I6
I0
I0
I24
I11
I0
I2
I234
I174
I1
I0
I18
I6
I0
I0
I62
I38
I1
I0
I51
I29
I0
I2
I86
I57
I1
I0
I60
I41
I0
I0
I38
I19
I0
I0
I144
I99
I0
tp329
g7
s(I2
I125
I87
I1
I0
I104
I75
I0
I0
I244
I230
I0
I0
I22
I12
I0
I0
I131
I90
I0
I0
I131
I102
I0
I0
I25
I14
I0
I0
I27
I15
I0
I0
I15
I6
I0
I0
I24
I11
I0
I2
I138
I101
I1
I0
I18
I6
I0
I0
I50
I30
I1
I0
I51
I29
I0
I2
I86
I57
I1
I0
I60
I41
I0
I0
I34
I17
I0
I0
I66
I41
I0
tp330
g4
s(I2
I106
I66
I1
I0
I105
I71
I0
I0
I244
I230
I0
I0
I22
I12
I0
I0
I129
I88
I0
I0
I131
I102
I0
I0
I30
I16
I0
I0
I32
I17
I0
I0
I15
I6
I0
I0
I24
I11
I0
I2
I241
I204
I1
I0
I18
I6
I0
I0
I50
I30
I1
I0
I51
I29
I0
I2
I86
I57
I1
I0
I60
I41
I0
I0
I54
I32
I0
I0
I104
I67
I0
tp331
g7
s(I2
I114
I78
I1
I0
I131
I91
I0
I0
I244
I230
I0
I0
I22
I12
I0
I0
I131
I90
I0
I0
I131
I102
I0
I0
I32
I18
I0
I0
I34
I19
I0
I0
I15
I6
I0
I0
I24
I11
I0
I2
I186
I146
I1
I0
I18
I6
I0
I0
I45
I24
I1
I0
I51
I29
I0
I2
I86
I57
I1
I0
I68
I47
I0
I0
I40
I21
I0
I0
I78
I50
I0
tp332
g4
s(I2
I116
I81
I1
I0
I106
I73
I0
I0
I244
I230
I0
I0
I22
I12
I0
I0
I171
I118
I0
I0
I131
I102
I0
I0
I45
I29
I0
I0
I37
I23
I0
I0
I15
I6
I0
I0
I24
I11
I0
I2
I240
I209
I1
I0
I18
I6
I0
I0
I58
I35
I1
I0
I51
I29
I0
I2
I86
I57
I1
I0
I60
I41
I0
I0
I43
I22
I0
I0
I92
I59
I0
tp333
g2
s(I2
I131
I95
I1
I0
I129
I91
I0
I0
I244
I230
I0
I0
I22
I12
I0
I0
I150
I105
I0
I0
I131
I102
I0
I0
I28
I17
I0
I0
I30
I18
I0
I0
I15
I6
I0
I0
I24
I11
I0
I2
I187
I150
I1
I0
I18
I6
I0
I0
I52
I32
I1
I0
I51
I29
I0
I2
I86
I57
I1
I0
I60
I41
I0
I0
I40
I21
I0
I0
I86
I50
I0
tp334
g2
s(I2
I165
I111
I1
I0
I104
I75
I0
I0
I244
I230
I0
I0
I22
I12
I0
I0
I119
I76
I0
I0
I131
I102
I0
I0
I25
I13
I0
I0
I27
I13
I0
I0
I15
I6
I0
I0
I24
I11
I0
I2
I182
I144
I1
I0
I18
I6
I0
I0
I62
I38
I1
I0
I51
I29
I0
I2
I86
I57
I1
I0
I60
I41
I0
I0
I44
I21
I0
I0
I99
I58
I0
tp335
g2
s(I2
I115
I76
I1
I0
I101
I69
I0
I0
I244
I230
I0
I0
I22
I12
I0
I0
I187
I142
I0
I0
I131
I102
I0
I0
I25
I14
I0
I0
I27
I15
I0
I0
I15
I6
I0
I0
I24
I11
I0
I2
I177
I143
I1
I0
I18
I6
I0
I0
I55
I34
I1
I0
I51
I29
I0
I2
I86
I57
I1
I0
I60
I41
I0
I0
I38
I19
I0
I0
I77
I49
I0
tp336
g4
s(I2
I120
I80
I1
I0
I107
I71
I0
I0
I244
I230
I0
I0
I22
I12
I0
I0
I105
I64
I0
I0
I131
I102
I0
I0
I25
I14
I0
I0
I27
I15
I0
I0
I15
I6
I0
I0
I24
I11
I0
I2
I141
I105
I1
I0
I18
I6
I0
I0
I62
I38
I1
I0
I51
I29
I0
I2
I86
I57
I1
I0
I60
I41
I0
I0
I38
I19
I0
I0
I108
I66
I0
tp337
g4
s(I2
I118
I76
I1
I0
I110
I78
I0
I0
I244
I230
I0
I0
I22
I12
I0
I0
I131
I119
I0
I0
I131
I102
I0
I0
I25
I14
I0
I0
I27
I15
I0
I0
I15
I6
I0
I0
I24
I11
I0
I2
I227
I174
I1
I0
I18
I6
I0
I0
I55
I34
I1
I0
I51
I29
I0
I2
I86
I57
I1
I0
I44
I32
I0
I0
I36
I19
I0
I0
I53
I30
I0
tp338
g4
s(I2
I101
I65
I1
I0
I111
I77
I0
I0
I244
I230
I0
I0
I22
I12
I0
I0
I38
I26
I0
I0
I131
I102
I0
I0
I33
I18
I0
I0
I32
I17
I0
I0
I15
I6
I0
I0
I24
I11
I0
I2
I180
I138
I1
I0
I18
I6
I0
I0
I50
I30
I1
I0
I51
I29
I0
I2
I86
I57
I1
I0
I63
I51
I0
I0
I42
I21
I0
I0
I122
I88
I0
tp339
g2
s(I2
I121
I85
I1
I0
I121
I87
I0
I0
I244
I230
I0
I0
I22
I12
I0
I0
I152
I107
I0
I0
I131
I102
I0
I0
I27
I16
I0
I0
I29
I17
I0
I0
I15
I6
I0
I0
I24
I11
I0
I2
I265
I229
I1
I0
I18
I6
I0
I0
I55
I34
I1
I0
I51
I29
I0
I2
I86
I57
I1
I0
I60
I41
I0
I0
I47
I26
I0
I0
I74
I46
I0
tp340
g4
s(I2
I103
I66
I1
I0
I101
I69
I0
I0
I244
I230
I0
I0
I22
I12
I0
I0
I123
I88
I0
I0
I131
I102
I0
I0
I25
I13
I0
I0
I27
I13
I0
I0
I15
I6
I0
I0
I24
I11
I0
I2
I221
I179
I1
I0
I18
I6
I0
I0
I53
I32
I1
I0
I51
I29
I0
I2
I86
I57
I1
I0
I60
I41
I0
I0
I38
I18
I0
I0
I97
I62
I0
tp341
g4
s(I2
I126
I86
I1
I0
I118
I79
I0
I0
I244
I230
I0
I0
I22
I12
I0
I0
I144
I130
I0
I0
I131
I102
I0
I0
I28
I17
I0
I0
I27
I15
I0
I0
I15
I6
I0
I0
I24
I11
I0
I2
I159
I123
I1
I0
I18
I6
I0
I0
I61
I34
I1
I0
I51
I29
I0
I2
I86
I57
I1
I0
I60
I41
I0
I0
I38
I19
I0
I0
I94
I59
I0
tp342
g7
s(I2
I105
I70
I1
I0
I107
I76
I0
I0
I244
I230
I0
I0
I22
I12
I0
I0
I123
I88
I0
I0
I131
I102
I0
I0
I25
I14
I0
I0
I37
I19
I0
I0
I15
I6
I0
I0
I24
I11
I0
I2
I237
I207
I1
I0
I18
I6
I0
I0
I58
I35
I1
I0
I51
I29
I0
I2
I86
I57
I1
I0
I60
I41
I0
I0
I38
I19
I0
I0
I97
I63
I0
tp343
g4
s(I2
I106
I68
I1
I0
I109
I79
I0
I0
I244
I230
I0
I0
I22
I12
I0
I0
I157
I119
I0
I0
I131
I102
I0
I0
I27
I15
I0
I0
I29
I15
I0
I0
I15
I6
I0
I0
I24
I11
I0
I2
I153
I116
I1
I0
I18
I6
I0
I0
I69
I44
I1
I0
I51
I29
I0
I2
I86
I57
I1
I0
I60
I41
I0
I0
I45
I23
I0
I0
I91
I61
I0
tp344
g4
s(I2
I107
I69
I1
I0
I132
I96
I0
I0
I244
I230
I0
I0
I22
I12
I0
I0
I131
I120
I0
I0
I131
I102
I0
I0
I30
I17
I0
I0
I36
I22
I0
I0
I15
I6
I0
I0
I24
I11
I0
I2
I125
I96
I1
I0
I18
I6
I0
I0
I52
I32
I1
I0
I51
I29
I0
I2
I86
I57
I1
I0
I60
I41
I0
I0
I38
I19
I0
I0
I109
I70
I0
tp345
g4
s.